################################################################################
#                                                                              #
#      IAR Universal Linker V5.7.0.39                                          #
#                                                                              #
#           Link time     =  10/Dec/2013  09:18:06                             #
#           Target CPU    =  MSP430                                            #
#           List file     =  "D:\ALaurent\Temp\git\EZ430-MyChronos\Sports Watc #
#                            h\915MHz - Limited IAR KickStart (USA)\List\ez430 #
#                            _chronos_915MHz.map"                              #
#           Output file 1 =  "D:\ALaurent\Temp\git\EZ430-MyChronos\Sports Watc #
#                            h\915MHz - Limited IAR KickStart (USA)\Exe\ez430_ #
#                            chronos_915MHz.d43"                               #
#                            Format: debug                                     #
#                            UBROF version 10.0.6                              #
#                            Using library modules for C-SPY (-rt)             #
#           Command line  =  --ks_version                                      #
#                            "D:\ALaurent\Temp\git\EZ430-MyChronos\Sports Watc #
#                            h\915MHz - Limited IAR KickStart (USA)\Obj\accele #
#                            ration.r43"                                       #
#                            "D:\ALaurent\Temp\git\EZ430-MyChronos\Sports Watc #
#                            h\915MHz - Limited IAR KickStart (USA)\Obj\alarm. #
#                            r43"                                              #
#                            "D:\ALaurent\Temp\git\EZ430-MyChronos\Sports Watc #
#                            h\915MHz - Limited IAR KickStart (USA)\Obj\altitu #
#                            de.r43"                                           #
#                            "D:\ALaurent\Temp\git\EZ430-MyChronos\Sports Watc #
#                            h\915MHz - Limited IAR KickStart (USA)\Obj\as.r43 #
#                            "                                                 #
#                            "D:\ALaurent\Temp\git\EZ430-MyChronos\Sports Watc #
#                            h\915MHz - Limited IAR KickStart (USA)\Obj\batter #
#                            y.r43"                                            #
#                            "D:\ALaurent\Temp\git\EZ430-MyChronos\Sports Watc #
#                            h\bluerobin\BlueRobin_RX_915MHz.r43"              #
#                            "D:\ALaurent\Temp\git\EZ430-MyChronos\Sports Watc #
#                            h\915MHz - Limited IAR KickStart (USA)\Obj\bluero #
#                            bin_stubs.r43"                                    #
#                            "D:\ALaurent\Temp\git\EZ430-MyChronos\Sports Watc #
#                            h\915MHz - Limited IAR KickStart (USA)\Obj\bmp_as #
#                            .r43"                                             #
#                            "D:\ALaurent\Temp\git\EZ430-MyChronos\Sports Watc #
#                            h\915MHz - Limited IAR KickStart (USA)\Obj\bmp_ps #
#                            .r43"                                             #
#                            "D:\ALaurent\Temp\git\EZ430-MyChronos\Sports Watc #
#                            h\simpliciti\CC430_End_Device_915MHz.r43"         #
#                            "D:\ALaurent\Temp\git\EZ430-MyChronos\Sports Watc #
#                            h\915MHz - Limited IAR KickStart (USA)\Obj\clock. #
#                            r43"                                              #
#                            "D:\ALaurent\Temp\git\EZ430-MyChronos\Sports Watc #
#                            h\915MHz - Limited IAR KickStart (USA)\Obj\cma_as #
#                            .r43"                                             #
#                            "D:\ALaurent\Temp\git\EZ430-MyChronos\Sports Watc #
#                            h\915MHz - Limited IAR KickStart (USA)\Obj\cma_ps #
#                            .r43"                                             #
#                            "D:\ALaurent\Temp\git\EZ430-MyChronos\Sports Watc #
#                            h\915MHz - Limited IAR KickStart (USA)\Obj\date.r #
#                            43"                                               #
#                            "D:\ALaurent\Temp\git\EZ430-MyChronos\Sports Watc #
#                            h\driver\ez430_chronos_drivers.r43"               #
#                            "D:\ALaurent\Temp\git\EZ430-MyChronos\Sports Watc #
#                            h\915MHz - Limited IAR KickStart (USA)\Obj\main.r #
#                            43"                                               #
#                            "D:\ALaurent\Temp\git\EZ430-MyChronos\Sports Watc #
#                            h\915MHz - Limited IAR KickStart (USA)\Obj\menu.r #
#                            43"                                               #
#                            "D:\ALaurent\Temp\git\EZ430-MyChronos\Sports Watc #
#                            h\915MHz - Limited IAR KickStart (USA)\Obj\ps.r43 #
#                            "                                                 #
#                            "D:\ALaurent\Temp\git\EZ430-MyChronos\Sports Watc #
#                            h\915MHz - Limited IAR KickStart (USA)\Obj\rfbsl. #
#                            r43"                                              #
#                            "D:\ALaurent\Temp\git\EZ430-MyChronos\Sports Watc #
#                            h\915MHz - Limited IAR KickStart (USA)\Obj\rfsimp #
#                            liciti.r43"                                       #
#                            "D:\ALaurent\Temp\git\EZ430-MyChronos\Sports Watc #
#                            h\915MHz - Limited IAR KickStart (USA)\Obj\stopwa #
#                            tch.r43"                                          #
#                            "D:\ALaurent\Temp\git\EZ430-MyChronos\Sports Watc #
#                            h\915MHz - Limited IAR KickStart (USA)\Obj\temper #
#                            ature.r43"                                        #
#                            "D:\ALaurent\Temp\git\EZ430-MyChronos\Sports Watc #
#                            h\915MHz - Limited IAR KickStart (USA)\Obj\user.r #
#                            43"                                               #
#                            -o                                                #
#                            "D:\ALaurent\Temp\git\EZ430-MyChronos\Sports Watc #
#                            h\915MHz - Limited IAR KickStart (USA)\Exe\ez430_ #
#                            chronos_915MHz.d43"                               #
#                            -l                                                #
#                            "D:\ALaurent\Temp\git\EZ430-MyChronos\Sports Watc #
#                            h\915MHz - Limited IAR KickStart (USA)\List\ez430 #
#                            _chronos_915MHz.map"                              #
#                            -xmsn                                             #
#                            "-ID:\ALaurent\eZ430\dev\IAR Embedded Workbench 6 #
#                            .5\430\LIB\"                                      #
#                            -f                                                #
#                            "D:\ALaurent\eZ430\dev\IAR Embedded Workbench 6.5 #
#                            \430\CONFIG\lnkCC430F6137.xcl"                    #
#                            (-cmsp430 -D?CPU30_OFFSET=2 -QCODE_I=CODE_ID      #
#                            -QTLS16_I=TLS16_ID                                #
#                            -Z(DATA)DATA16_I,DATA16_Z,DATA16_N,TLS16_I,DATA16 #
#                            _HEAP+_DATA16_HEAP_SIZE=1C00-2BFD                 #
#                            -Z(DATA)CODE_I -Z(DATA)CSTACK+_STACK_SIZE#        #
#                            -Z(CONST)INFO=1800-19FF                           #
#                            -Z(CONST)INFOA=1980-19FF                          #
#                            -Z(CONST)INFOB=1900-197F                          #
#                            -Z(CONST)INFOC=1880-18FF                          #
#                            -Z(CONST)INFOD=1800-187F                          #
#                            -Z(CONST)DATA16_C,DATA16_ID,TLS16_ID,DIFUNCT,CHEC #
#                            KSUM=8000-FF7F                                    #
#                            -Z(CODE)CSTART,ISR_CODE,CODE_ID=8000-FF7F         #
#                            -P(CODE)CODE=8000-FF7F -Z(CODE)INTVEC=FF80-FFFF   #
#                            -Z(CODE)RESET=FFFE-FFFF) -D_STACK_SIZE=50 -rt     #
#                            "D:\ALaurent\eZ430\dev\IAR Embedded Workbench 6.5 #
#                            \430\LIB\DLIB\dl430xsfn.r43"                      #
#                            -e_PrintfLarge=_Printf -e_ScanfLarge=_Scanf       #
#                            -D_DATA16_HEAP_SIZE=50 -s __program_start         #
#                            -D_DATA20_HEAP_SIZE=50                            #
#                                                                              #
#                           Copyright (C) 1987-2013 IAR Systems AB.            #
################################################################################





                ****************************************
                *                                      *
                *           CROSS REFERENCE            *
                *                                      *
                ****************************************

       Program entry at :           8508  Relocatable, from module : ?cstart




                ****************************************
                *                                      *
                *            RUNTIME MODEL             *
                *                                      *
                ****************************************

  __Heap_Handler             = Basic
  __SystemLibrary            = DLib
  __core                     = 430X
  __data_model               = small
  __dlib_file_descriptor     = 0
  __dlib_full_locale_support = 0
  __double_size              = 32
  __pic                      = no
  __reg_r4                   = free
  __reg_r5                   = free
  __rt_version               = 3

                ****************************************
                *                                      *
                *    AUTOMATIC SYMBOL REDIRECTIONS     *
                *                                      *
                ****************************************

                  There are no automatic symbol redirections.



                ****************************************
                *                                      *
                *              MODULE MAP              *
                *                                      *
                ****************************************


  DEFINED ABSOLUTE ENTRIES
    *************************************************************************

  DEFINED ABSOLUTE ENTRIES
  PROGRAM MODULE, NAME : ?ABS_ENTRY_MOD

Absolute parts
           ENTRY                   ADDRESS         REF BY
           =====                   =======         ======
           _DATA20_HEAP_SIZE       0050 
           _DATA16_HEAP_SIZE       0050 
           _STACK_SIZE             0050 
           ?CPU30_OFFSET           0002 
    *************************************************************************

  FILE NAME : D:\ALaurent\Temp\git\EZ430-MyChronos\Sports Watch\915MHz - Limited IAR KickStart (USA)\Obj\acceleration.r43
  PROGRAM MODULE, NAME : acceleration

  SEGMENTS IN THE MODULE
  ======================
DATA16_Z
  Relative segment, address: 1C78 - 1C81 (0xa bytes), align: 1
  Segment part 3.             Intra module refs:   display_acceleration
                                                   do_acceleration_measurement
                                                   is_acceleration_measurement
                                                   reset_acceleration
                                                   sx_acceleration
           ENTRY                   ADDRESS         REF BY
           =====                   =======         ======
           sAccel                  1C78            TIMER0_A0_ISR (timer)
                                                   simpliciti_get_ed_data_callback (rfsimpliciti)
    -------------------------------------------------------------------------
DATA16_C
  Relative segment, address: 8150 - 8153 (0x4 bytes), align: 0
  Segment part 2.             Intra module refs:   display_acceleration
    -------------------------------------------------------------------------
DATA16_C
  Relative segment, address: 8000 - 800D (0xe bytes), align: 1
  Segment part 4.             Intra module refs:   convert_acceleration_value_to_mgrav
           ENTRY                   ADDRESS         REF BY
           =====                   =======         ======
           bmp_mgrav_per_bit       8000 
    -------------------------------------------------------------------------
DATA16_C
  Relative segment, address: 800E - 801B (0xe bytes), align: 1
  Segment part 5.             Intra module refs:   convert_acceleration_value_to_mgrav
           ENTRY                   ADDRESS         REF BY
           =====                   =======         ======
           cma_mgrav_per_bit       800E 
    -------------------------------------------------------------------------
<CODE> 1 (was CODE)
  Relative segment, address: E14C - E159 (0xe bytes), align: 1
  Segment part 12.
           ENTRY                   ADDRESS         REF BY
           =====                   =======         ======
           reset_acceleration      E14C            init_global_variables (main)
               CSTACK = 00000000 ( 00000004 )
    -------------------------------------------------------------------------
<CODE> 1 (was CODE)
  Relative segment, address: D542 - D569 (0x28 bytes), align: 1
  Segment part 11.
           ENTRY                   ADDRESS         REF BY
           =====                   =======         ======
           sx_acceleration         D542            menu_L1_Acceleration (menu)
               calls direct
               CSTACK = 00000000 ( 00000004 )
    -------------------------------------------------------------------------
<CODE> 1 (was CODE)
  Relative segment, address: C90E - C955 (0x48 bytes), align: 1
  Segment part 9.             Intra module refs:   display_acceleration
           ENTRY                   ADDRESS         REF BY
           =====                   =======         ======
           convert_acceleration_value_to_mgrav
                                   C90E 
               CSTACK = 00000000 ( 00000010 )
    -------------------------------------------------------------------------
<CODE> 1 (was CODE)
  Relative segment, address: DB9A - DBB1 (0x18 bytes), align: 1
  Segment part 8.             Intra module refs:   display_acceleration
           ENTRY                   ADDRESS         REF BY
           =====                   =======         ======
           is_acceleration_measurement
                                   DB9A            TIMER0_A0_ISR (timer)
               CSTACK = 00000000 ( 00000004 )
    -------------------------------------------------------------------------
<CODE> 1 (was CODE)
  Relative segment, address: DA08 - DA23 (0x1c bytes), align: 1
  Segment part 7.
           ENTRY                   ADDRESS         REF BY
           =====                   =======         ======
           do_acceleration_measurement
                                   DA08            process_requests (main)
               calls direct
               CSTACK = 00000000 ( 00000004 )
    -------------------------------------------------------------------------
<CODE> 1 (was CODE)
  Relative segment, address: 98B0 - 99EF (0x140 bytes), align: 1
  Segment part 6.
           ENTRY                   ADDRESS         REF BY
           =====                   =======         ======
           display_acceleration    98B0            menu_L1_Acceleration (menu)
               calls direct
               CSTACK = 00000000 ( 00000010 )

    *************************************************************************

  FILE NAME : D:\ALaurent\Temp\git\EZ430-MyChronos\Sports Watch\915MHz - Limited IAR KickStart (USA)\Obj\alarm.r43
  PROGRAM MODULE, NAME : alarm

  SEGMENTS IN THE MODULE
  ======================
DATA16_Z
  Relative segment, address: 1D90 - 1D93 (0x4 bytes), align: 0
  Segment part 2.             Intra module refs:   check_alarm
                                                   display_alarm
                                                   mx_alarm
                                                   reset_alarm
                                                   stop_alarm
                                                   sx_alarm
           ENTRY                   ADDRESS         REF BY
           =====                   =======         ======
           sAlarm                  1D90            PORT2_ISR (ports)
                                                   TIMER0_A0_ISR (timer)
                                                   simpliciti_sync_decode_ap_cmd_callback (rfsimpliciti)
                                                   simpliciti_sync_get_data_callback (rfsimpliciti)
    -------------------------------------------------------------------------
<CODE> 1 (was CODE)
  Relative segment, address: DB6A - DB81 (0x18 bytes), align: 1
  Segment part 10.
           ENTRY                   ADDRESS         REF BY
           =====                   =======         ======
           reset_alarm             DB6A            init_global_variables (main)
               CSTACK = 00000000 ( 00000004 )
    -------------------------------------------------------------------------
<CODE> 1 (was CODE)
  Relative segment, address: D9EC - DA07 (0x1c bytes), align: 1
  Segment part 9.
           ENTRY                   ADDRESS         REF BY
           =====                   =======         ======
           check_alarm             D9EC            TIMER0_A0_ISR (timer)
               CSTACK = 00000000 ( 00000004 )
    -------------------------------------------------------------------------
<CODE> 1 (was CODE)
  Relative segment, address: E404 - E40B (0x8 bytes), align: 1
  Segment part 8.
           ENTRY                   ADDRESS         REF BY
           =====                   =======         ======
           stop_alarm              E404            PORT2_ISR (ports)
                                                   TIMER0_A0_ISR (timer)
               calls direct
               CSTACK = 00000000 ( 00000004 )
    -------------------------------------------------------------------------
<CODE> 1 (was CODE)
  Relative segment, address: D056 - D087 (0x32 bytes), align: 1
  Segment part 7.
           ENTRY                   ADDRESS         REF BY
           =====                   =======         ======
           sx_alarm                D056            menu_L1_Alarm (menu)
               CSTACK = 00000000 ( 00000004 )
    -------------------------------------------------------------------------
<CODE> 1 (was CODE)
  Relative segment, address: A40E - A4FD (0xf0 bytes), align: 1
  Segment part 6.
           ENTRY                   ADDRESS         REF BY
           =====                   =======         ======
           mx_alarm                A40E            menu_L1_Alarm (menu)
               calls direct
               CSTACK = 00000000 ( 0000001A )
    -------------------------------------------------------------------------
<CODE> 1 (was CODE)
  Relative segment, address: B702 - B793 (0x92 bytes), align: 1
  Segment part 3.
           ENTRY                   ADDRESS         REF BY
           =====                   =======         ======
           display_alarm           B702            menu_L1_Alarm (menu)
               calls direct
               CSTACK = 00000000 ( 00000008 )
    -------------------------------------------------------------------------
<CODE> 1 (was CODE)
  Relative segment, address: D8E6 - D8F5 (0x10 bytes), align: 1
  Segment part 4.             Intra module refs:   display_alarm
           LOCAL                   ADDRESS         
           =====                   =======         
           ?Subroutine0            D8E6 
    -------------------------------------------------------------------------
<CODE> 1 (was CODE)
  Relative segment, address: D8F6 - D903 (0xe bytes), align: 1
  Segment part 5.             Intra module refs:   ?Subroutine0
                                                   display_alarm
           LOCAL                   ADDRESS         
           =====                   =======         
           ?Subroutine1            D8F6 

    *************************************************************************

  FILE NAME : D:\ALaurent\Temp\git\EZ430-MyChronos\Sports Watch\915MHz - Limited IAR KickStart (USA)\Obj\altitude.r43
  PROGRAM MODULE, NAME : altitude

  SEGMENTS IN THE MODULE
  ======================
DATA16_AN
  Relative segment, address: 0200 - 0201 (0x2 bytes), align: 0
  Segment part 1. ROOT.       Intra module refs:   PORT2_ISR (ports)
                                                   TIMER0_A0_ISR (timer)
                                                   button_repeat_function (ports)
                                                   do_altitude_measurement
                                                   start_altitude_measurement
                                                   wakeup_event (main)
           ENTRY                   ADDRESS         REF BY
           =====                   =======         ======
           _A_PAIN_L               0200 
           LOCAL                   ADDRESS         
           =====                   =======         
           PAIN                    0200 
           PAIN_H                  0201 
           PAIN_L                  0200 
    -------------------------------------------------------------------------
DATA16_AN
  Relative segment, address: 021A - 021B (0x2 bytes), align: 0
  Segment part 2. ROOT.       Intra module refs:   PORT2_ISR (ports)
                                                   as_start (as)
                                                   as_stop (as)
                                                   bmp_as_start (bmp_as)
                                                   init_buttons (ports)
                                                   start_altitude_measurement
                                                   stop_altitude_measurement
                                                   sx_ppt (rfsimpliciti)
                                                   sx_rf (rfsimpliciti)
                                                   sx_sync (rfsimpliciti)
           ENTRY                   ADDRESS         REF BY
           =====                   =======         ======
           _A_PAIE_L               021A 
           LOCAL                   ADDRESS         
           =====                   =======         
           PAIE                    021A 
           PAIE_H                  021B 
           PAIE_L                  021A 
    -------------------------------------------------------------------------
DATA16_AN
  Relative segment, address: 021C - 021D (0x2 bytes), align: 0
  Segment part 3. ROOT.       Intra module refs:   PORT2_ISR (ports)
                                                   as_start (as)
                                                   bmp_as_start (bmp_as)
                                                   init_buttons (ports)
                                                   start_altitude_measurement
                                                   start_simpliciti_sync (rfsimpliciti)
                                                   start_simpliciti_tx_only (rfsimpliciti)
                                                   stop_altitude_measurement
           ENTRY                   ADDRESS         REF BY
           =====                   =======         ======
           _A_PAIFG_L              021C 
           LOCAL                   ADDRESS         
           =====                   =======         
           PAIFG                   021C 
           PAIFG_H                 021D 
           PAIFG_L                 021C 
    -------------------------------------------------------------------------
DATA16_Z
  Relative segment, address: 1C82 - 1C8F (0xe bytes), align: 1
  Segment part 6.             Intra module refs:   ?Subroutine5
                                                   display_altitude
                                                   do_altitude_measurement
                                                   is_altitude_measurement
                                                   mx_altitude
                                                   reset_altitude_measurement
                                                   start_altitude_measurement
                                                   stop_altitude_measurement
           ENTRY                   ADDRESS         REF BY
           =====                   =======         ======
           sAlt                    1C82            TIMER0_A0_ISR (timer)
                                                   read_calibration_values (main)
                                                   simpliciti_sync_decode_ap_cmd_callback (rfsimpliciti)
                                                   simpliciti_sync_get_data_callback (rfsimpliciti)
    -------------------------------------------------------------------------
<CODE> 1 (was CODE)
  Relative segment, address: CEE8 - CF1F (0x38 bytes), align: 1
  Segment part 23.
           ENTRY                   ADDRESS         REF BY
           =====                   =======         ======
           reset_altitude_measurement
                                   CEE8            init_global_variables (main)
               calls direct
               CSTACK = 00000000 ( 00000004 )
    -------------------------------------------------------------------------
<CODE> 1 (was CODE)
  Relative segment, address: E122 - E12F (0xe bytes), align: 1
  Segment part 24.            Intra module refs:   mx_altitude
                                                   reset_altitude_measurement
           LOCAL                   ADDRESS         
           =====                   =======         
           ?Subroutine5            E122 
    -------------------------------------------------------------------------
<CODE> 1 (was CODE)
  Relative segment, address: CD60 - CD71 (0x12 bytes), align: 1
  Segment part 19.            Intra module refs:   mx_altitude
           ENTRY                   ADDRESS         REF BY
           =====                   =======         ======
           convert_ft_to_m         CD60 
               CSTACK = 00000000 ( 00000004 )
    -------------------------------------------------------------------------
<CODE> 1 (was CODE)
  Relative segment, address: CD72 - CD77 (0x6 bytes), align: 1
  Segment part 20.            Intra module refs:   convert_ft_to_m
                                                   convert_m_to_ft
           LOCAL                   ADDRESS         
           =====                   =======         
           ?Subroutine1            CD72 
    -------------------------------------------------------------------------
<CODE> 1 (was CODE)
  Relative segment, address: CD78 - CD81 (0xa bytes), align: 1
  Segment part 21.            Intra module refs:   ?Subroutine2
                                                   ?Subroutine3
                                                   convert_ft_to_m
                                                   convert_m_to_ft
           LOCAL                   ADDRESS         
           =====                   =======         
           ?Subroutine6            CD78 
    -------------------------------------------------------------------------
<CODE> 1 (was CODE)
  Relative segment, address: CD82 - CD97 (0x16 bytes), align: 1
  Segment part 22.            Intra module refs:   display_altitude
                                                   mx_altitude
           ENTRY                   ADDRESS         REF BY
           =====                   =======         ======
           convert_m_to_ft         CD82 
               CSTACK = 00000000 ( 00000004 )
    -------------------------------------------------------------------------
<CODE> 1 (was CODE)
  Relative segment, address: DBB2 - DBC9 (0x18 bytes), align: 1
  Segment part 18.
           ENTRY                   ADDRESS         REF BY
           =====                   =======         ======
           is_altitude_measurement
                                   DBB2            TIMER0_A0_ISR (timer)
               CSTACK = 00000000 ( 00000004 )
    -------------------------------------------------------------------------
<CODE> 1 (was CODE)
  Relative segment, address: C6BC - C707 (0x4c bytes), align: 1
  Segment part 17.            Intra module refs:   display_altitude
                                                   reset_altitude_measurement
           ENTRY                   ADDRESS         REF BY
           =====                   =======         ======
           start_altitude_measurement
                                   C6BC            start_simpliciti_sync (rfsimpliciti)
               calls direct
               CSTACK = 00000000 ( 00000004 )
    -------------------------------------------------------------------------
<CODE> 1 (was CODE)
  Relative segment, address: D56A - D591 (0x28 bytes), align: 1
  Segment part 16.            Intra module refs:   display_altitude
                                                   reset_altitude_measurement
           ENTRY                   ADDRESS         REF BY
           =====                   =======         ======
           stop_altitude_measurement
                                   D56A            TIMER0_A0_ISR (timer)
                                                   start_simpliciti_sync (rfsimpliciti)
               calls direct
               CSTACK = 00000000 ( 00000004 )
    -------------------------------------------------------------------------
<CODE> 1 (was CODE)
  Relative segment, address: 919A - 9251 (0xb8 bytes), align: 1
  Segment part 11.
           ENTRY                   ADDRESS         REF BY
           =====                   =======         ======
           mx_altitude             919A            menu_L1_Altitude (menu)
               calls direct
               CSTACK = 00000000 ( 0000001E )
    -------------------------------------------------------------------------
<CODE> 1 (was CODE)
  Relative segment, address: 9252 - 9257 (0x6 bytes), align: 1
  Segment part 12.            Intra module refs:   do_altitude_measurement
                                                   mx_altitude
           LOCAL                   ADDRESS         
           =====                   =======         
           ?Subroutine0            9252 
    -------------------------------------------------------------------------
<CODE> 1 (was CODE)
  Relative segment, address: 9258 - 9265 (0xe bytes), align: 1
  Segment part 13.            Intra module refs:   mx_altitude
           LOCAL                   ADDRESS         
           =====                   =======         
           ?Subroutine2            9258 
    -------------------------------------------------------------------------
<CODE> 1 (was CODE)
  Relative segment, address: 9266 - 9267 (0x2 bytes), align: 1
  Segment part 14.
           ENTRY                   ADDRESS         REF BY
           =====                   =======         ======
           sx_altitude             9266            menu_L1_Altitude (menu)
               CSTACK = 00000000 ( 00000004 )
    -------------------------------------------------------------------------
<CODE> 1 (was CODE)
  Relative segment, address: 9268 - 932B (0xc4 bytes), align: 1
  Segment part 15.            Intra module refs:   start_altitude_measurement
           ENTRY                   ADDRESS         REF BY
           =====                   =======         ======
           do_altitude_measurement
                                   9268            process_requests (main)
               calls direct
               CSTACK = 00000000 ( 00000010 )
    -------------------------------------------------------------------------
<CODE> 1 (was CODE)
  Relative segment, address: ABDE - ACA1 (0xc4 bytes), align: 1
  Segment part 7.
           ENTRY                   ADDRESS         REF BY
           =====                   =======         ======
           display_altitude        ABDE            menu_L1_Altitude (menu)
               calls direct
               CSTACK = 00000000 ( 00000008 )
    -------------------------------------------------------------------------
<CODE> 1 (was CODE)
  Relative segment, address: E3D4 - E3D5 (0x2 bytes), align: 1
  Segment part 8.             Intra module refs:   display_altitude
           LOCAL                   ADDRESS         
           =====                   =======         
           ?Subroutine4            E3D4 
    -------------------------------------------------------------------------
<CODE> 1 (was CODE)
  Relative segment, address: E3D6 - E3DB (0x6 bytes), align: 1
  Segment part 9.             Intra module refs:   ?Subroutine4
                                                   display_altitude
    -------------------------------------------------------------------------
<CODE> 1 (was CODE)
  Relative segment, address: E292 - E29D (0xc bytes), align: 1
  Segment part 10.            Intra module refs:   display_altitude
           LOCAL                   ADDRESS         
           =====                   =======         
           ?Subroutine3            E292 
    -------------------------------------------------------------------------
DATA16_C
  Relative segment, address: 8154 - 8157 (0x4 bytes), align: 0
  Segment part 5.             Intra module refs:   start_altitude_measurement

    *************************************************************************

  FILE NAME : D:\ALaurent\Temp\git\EZ430-MyChronos\Sports Watch\915MHz - Limited IAR KickStart (USA)\Obj\as.r43
  PROGRAM MODULE, NAME : as

  SEGMENTS IN THE MODULE
  ======================
DATA16_AN
  Relative segment, address: 0202 - 0203 (0x2 bytes), align: 0
  Segment part 1. ROOT.       Intra module refs:   PORT2_ISR (ports)
                                                   TIMER0_A0_ISR (timer)
                                                   as_init
                                                   as_stop
                                                   init_application (main)
                                                   init_buttons (ports)
                                                   stop_buzzer (buzzer)
                                                   sx_ppt (rfsimpliciti)
                                                   sx_rf (rfsimpliciti)
                                                   sx_sync (rfsimpliciti)
                                                   toggle_buzzer (buzzer)
           ENTRY                   ADDRESS         REF BY
           =====                   =======         ======
           _A_PAOUT_L              0202 
           LOCAL                   ADDRESS         
           =====                   =======         
           PAOUT                   0202 
           PAOUT_H                 0203 
           PAOUT_L                 0202 
    -------------------------------------------------------------------------
DATA16_AN
  Relative segment, address: 0204 - 0205 (0x2 bytes), align: 0
  Segment part 2. ROOT.       Intra module refs:   PORT2_ISR (ports)
                                                   TIMER0_A0_ISR (timer)
                                                   as_init
                                                   as_start
                                                   as_stop
                                                   init_application (main)
                                                   init_buttons (ports)
                                                   ps_init (ps)
                                                   sx_ppt (rfsimpliciti)
                                                   sx_rf (rfsimpliciti)
                                                   sx_sync (rfsimpliciti)
           ENTRY                   ADDRESS         REF BY
           =====                   =======         ======
           _A_PADIR_L              0204 
           LOCAL                   ADDRESS         
           =====                   =======         
           PADIR                   0204 
           PADIR_H                 0205 
           PADIR_L                 0204 
    -------------------------------------------------------------------------
DATA16_AN
  Relative segment, address: 0206 - 0207 (0x2 bytes), align: 0
  Segment part 3. ROOT.       Intra module refs:   as_read_register
                                                   as_start
                                                   as_write_register
                                                   init_buttons (ports)
           ENTRY                   ADDRESS         REF BY
           =====                   =======         ======
           _A_PAREN_L              0206 
           LOCAL                   ADDRESS         
           =====                   =======         
           PAREN                   0206 
           PAREN_H                 0207 
           PAREN_L                 0206 
    -------------------------------------------------------------------------
DATA16_AN
  Relative segment, address: 020A - 020B (0x2 bytes), align: 0
  Segment part 4. ROOT.       Intra module refs:   as_start
                                                   as_stop
                                                   start_buzzer (buzzer)
                                                   stop_buzzer (buzzer)
                                                   toggle_buzzer (buzzer)
           ENTRY                   ADDRESS         REF BY
           =====                   =======         ======
           _A_PASEL_L              020A 
           LOCAL                   ADDRESS         
           =====                   =======         
           PASEL                   020A 
           PASEL_H                 020B 
           PASEL_L                 020A 
    -------------------------------------------------------------------------
DATA16_AN
  Relative segment, address: 0218 - 0219 (0x2 bytes), align: 0
  Segment part 5. ROOT.       Intra module refs:   PORT2_ISR (ports)
                                                   TIMER0_A0_ISR (timer)
                                                   as_start
                                                   init_buttons (ports)
                                                   ps_init (ps)
           ENTRY                   ADDRESS         REF BY
           =====                   =======         ======
           _A_PAIES_L              0218 
           LOCAL                   ADDRESS         
           =====                   =======         
           PAIES                   0218 
           PAIES_H                 0219 
           PAIES_L                 0218 
    -------------------------------------------------------------------------
DATA16_AN
  Relative segment, address: 0322 - 0323 (0x2 bytes), align: 0
  Segment part 8. ROOT.       Intra module refs:   as_init
                                                   as_read_register
                                                   as_start
                                                   as_stop
                                                   as_write_register
                                                   bmp_as_get_data (bmp_as)
                                                   cma_as_get_data (cma_as)
                                                   ps_i2c_read (ps)
                                                   ps_i2c_sda (ps)
                                                   ps_i2c_write (ps)
                                                   ps_init (ps)
           ENTRY                   ADDRESS         REF BY
           =====                   =======         ======
           _A_PJOUT_L              0322 
           LOCAL                   ADDRESS         
           =====                   =======         
           PJOUT                   0322 
           PJOUT_H                 0323 
           PJOUT_L                 0322 
    -------------------------------------------------------------------------
DATA16_AN
  Relative segment, address: 0324 - 0325 (0x2 bytes), align: 0
  Segment part 9. ROOT.       Intra module refs:   as_init
                                                   as_stop
                                                   ps_i2c_read (ps)
                                                   ps_i2c_sda (ps)
                                                   ps_i2c_write (ps)
                                                   ps_init (ps)
           ENTRY                   ADDRESS         REF BY
           =====                   =======         ======
           _A_PJDIR_L              0324 
           LOCAL                   ADDRESS         
           =====                   =======         
           PJDIR                   0324 
           PJDIR_H                 0325 
           PJDIR_L                 0324 
    -------------------------------------------------------------------------
DATA16_AN
  Relative segment, address: 05CC - 05CC (0x1 bytes), align: 0
  Segment part 10. ROOT.      Intra module refs:   as_read_register
                                                   as_write_register
           ENTRY                   ADDRESS         REF BY
           =====                   =======         ======
           UCA0RXBUF               05CC 
    -------------------------------------------------------------------------
DATA16_AN
  Relative segment, address: 05CE - 05CE (0x1 bytes), align: 0
  Segment part 11. ROOT.      Intra module refs:   as_read_register
                                                   as_write_register
           ENTRY                   ADDRESS         REF BY
           =====                   =======         ======
           UCA0TXBUF               05CE 
    -------------------------------------------------------------------------
DATA16_AN
  Relative segment, address: 05DC - 05DD (0x2 bytes), align: 0
  Segment part 12. ROOT.      Intra module refs:   as_read_register
                                                   as_write_register
           ENTRY                   ADDRESS         REF BY
           =====                   =======         ======
           _A_UCA0ICTL_L           05DC 
           LOCAL                   ADDRESS         
           =====                   =======         
           UCA0ICTL                05DC 
           UCA0ICTL_H              05DD 
           UCA0ICTL_L              05DC 
    -------------------------------------------------------------------------
DATA16_Z
  Relative segment, address: 1D94 - 1D94 (0x1 bytes), align: 0
  Segment part 14.            Intra module refs:   ?Subroutine1
                                                   as_init
                                                   as_read_register
                                                   as_write_register
           ENTRY                   ADDRESS         REF BY
           =====                   =======         ======
           as_ok                   1D94            display_acceleration (acceleration)
    -------------------------------------------------------------------------
<CODE> 1 (was CODE)
  Relative segment, address: D604 - D613 (0x10 bytes), align: 1
  Segment part 20.
           ENTRY                   ADDRESS         REF BY
           =====                   =======         ======
           as_stop                 D604            bmp_as_stop (bmp_as)
                                                   cma_as_stop (cma_as)
               CSTACK = 00000000 ( 00000004 )
    -------------------------------------------------------------------------
<CODE> 1 (was CODE)
  Relative segment, address: D614 - D629 (0x16 bytes), align: 1
  Segment part 21.            Intra module refs:   as_init
                                                   as_stop
           LOCAL                   ADDRESS         
           =====                   =======         
           ?Subroutine3            D614 
    -------------------------------------------------------------------------
<CODE> 1 (was CODE)
  Relative segment, address: DE52 - DE63 (0x12 bytes), align: 1
  Segment part 23.
           ENTRY                   ADDRESS         REF BY
           =====                   =======         ======
           as_init                 DE52            init_application (main)
               CSTACK = 00000000 ( 00000004 )
    -------------------------------------------------------------------------
<CODE> 1 (was CODE)
  Relative segment, address: DE2E - DE3F (0x12 bytes), align: 1
  Segment part 24.            Intra module refs:   as_init
                                                   as_stop
           LOCAL                   ADDRESS         
           =====                   =======         
           ?Subroutine4            DE2E 
    -------------------------------------------------------------------------
<CODE> 1 (was CODE)
  Relative segment, address: CBCA - CC05 (0x3c bytes), align: 1
  Segment part 22.
           ENTRY                   ADDRESS         REF BY
           =====                   =======         ======
           as_start                CBCA            bmp_as_start (bmp_as)
                                                   cma_as_start (cma_as)
               calls direct
               CSTACK = 00000000 ( 00000004 )
    -------------------------------------------------------------------------
<CODE> 1 (was CODE)
  Relative segment, address: B4A2 - B4E1 (0x40 bytes), align: 1
  Segment part 15.
           ENTRY                   ADDRESS         REF BY
           =====                   =======         ======
           as_write_register       B4A2            bmp_as_write_register (bmp_as)
                                                   cma_as_write_register (cma_as)
               CSTACK = 00000000 ( 00000004 )
    -------------------------------------------------------------------------
<CODE> 1 (was CODE)
  Relative segment, address: B4E2 - B4E9 (0x8 bytes), align: 1
  Segment part 16.            Intra module refs:   as_read_register
                                                   as_write_register
           LOCAL                   ADDRESS         
           =====                   =======         
           ?Subroutine1            B4E2 
    -------------------------------------------------------------------------
<CODE> 1 (was CODE)
  Relative segment, address: B4EA - B4F9 (0x10 bytes), align: 1
  Segment part 17.            Intra module refs:   as_read_register
                                                   as_write_register
           LOCAL                   ADDRESS         
           =====                   =======         
           ?Subroutine0            B4EA 
    -------------------------------------------------------------------------
<CODE> 1 (was CODE)
  Relative segment, address: B4FA - B539 (0x40 bytes), align: 1
  Segment part 18.
           ENTRY                   ADDRESS         REF BY
           =====                   =======         ======
           as_read_register        B4FA            bmp_as_read_register (bmp_as)
                                                   cma_as_read_register (cma_as)
               CSTACK = 00000000 ( 00000004 )
    -------------------------------------------------------------------------
<CODE> 1 (was CODE)
  Relative segment, address: DBE2 - DBF9 (0x18 bytes), align: 1
  Segment part 19.            Intra module refs:   as_read_register
                                                   as_write_register
           LOCAL                   ADDRESS         
           =====                   =======         
           ?Subroutine2            DBE2 

    *************************************************************************

  FILE NAME : D:\ALaurent\Temp\git\EZ430-MyChronos\Sports Watch\915MHz - Limited IAR KickStart (USA)\Obj\battery.r43
  PROGRAM MODULE, NAME : battery

  SEGMENTS IN THE MODULE
  ======================
DATA16_Z
  Relative segment, address: 1C90 - 1C95 (0x6 bytes), align: 1
  Segment part 2.             Intra module refs:   ?Subroutine0
                                                   battery_measurement
                                                   display_battery_V
                                                   reset_batt_measurement
           ENTRY                   ADDRESS         REF BY
           =====                   =======         ======
           sBatt                   1C90            TIMER0_A0_ISR (timer)
                                                   read_calibration_values (main)
    -------------------------------------------------------------------------
<CODE> 1 (was CODE)
  Relative segment, address: DDF8 - DE09 (0x12 bytes), align: 1
  Segment part 6.
           ENTRY                   ADDRESS         REF BY
           =====                   =======         ======
           reset_batt_measurement
                                   DDF8            init_global_variables (main)
               CSTACK = 00000000 ( 00000004 )
    -------------------------------------------------------------------------
<CODE> 1 (was CODE)
  Relative segment, address: BEFC - BF61 (0x66 bytes), align: 1
  Segment part 5.
           ENTRY                   ADDRESS         REF BY
           =====                   =======         ======
           battery_measurement     BEFC            init_global_variables (main)
                                                   process_requests (main)
               calls direct
               CSTACK = 00000000 ( 00000004 )
    -------------------------------------------------------------------------
<CODE> 1 (was CODE)
  Relative segment, address: CA1A - CA59 (0x40 bytes), align: 1
  Segment part 3.
           ENTRY                   ADDRESS         REF BY
           =====                   =======         ======
           display_battery_V       CA1A            menu_L2_Battery (menu)
               calls direct
               CSTACK = 00000000 ( 00000004 )
    -------------------------------------------------------------------------
<CODE> 1 (was CODE)
  Relative segment, address: D9B4 - D9CF (0x1c bytes), align: 1
  Segment part 4.             Intra module refs:   display_battery_V
           LOCAL                   ADDRESS         
           =====                   =======         
           ?Subroutine0            D9B4 

    *************************************************************************

  FILE NAME : D:\ALaurent\Temp\git\EZ430-MyChronos\Sports Watch\915MHz - Limited IAR KickStart (USA)\Obj\bluerobin_stubs.r43
  PROGRAM MODULE, NAME : bluerobin_stubs

  SEGMENTS IN THE MODULE
  ======================
<CODE> 1 (was CODE)
  Relative segment, address: E4C6 - E4C7 (0x2 bytes), align: 1
  Segment part 9.
           ENTRY                   ADDRESS         REF BY
           =====                   =======         ======
           BlueRobin_RadioISR_v    E4C6            radio_ISR (radio)
               CSTACK = 00000000 ( 00000004 )
    -------------------------------------------------------------------------
<CODE> 1 (was CODE)
  Relative segment, address: E4C4 - E4C5 (0x2 bytes), align: 1
  Segment part 8.
           ENTRY                   ADDRESS         REF BY
           =====                   =======         ======
           BRRX_TimerTask_v        E4C4            TIMER0_A1_5_ISR (timer)
               CSTACK = 00000000 ( 00000004 )
    -------------------------------------------------------------------------
<CODE> 1 (was CODE)
  Relative segment, address: E486 - E489 (0x4 bytes), align: 1
  Segment part 7.
           ENTRY                   ADDRESS         REF BY
           =====                   =======         ======
           is_bluerobin            E486            TIMER0_A0_ISR (timer)
                                                   display_update (main)
                                                   sx_ppt (rfsimpliciti)
                                                   sx_rf (rfsimpliciti)
                                                   sx_rfbsl (rfbsl)
                                                   sx_sync (rfsimpliciti)
               CSTACK = 00000000 ( 00000004 )
    -------------------------------------------------------------------------
<CODE> 1 (was CODE)
  Relative segment, address: E48A - E48D (0x4 bytes), align: 1
  Segment part 6.
           ENTRY                   ADDRESS         REF BY
           =====                   =======         ======
           is_bluerobin_searching
                                   E48A            TIMER0_A0_ISR (timer)
               CSTACK = 00000000 ( 00000004 )
    -------------------------------------------------------------------------
<CODE> 1 (was CODE)
  Relative segment, address: E4C2 - E4C3 (0x2 bytes), align: 1
  Segment part 5.
           ENTRY                   ADDRESS         REF BY
           =====                   =======         ======
           test_mode               E4C2            main (main)
               CSTACK = 00000000 ( 00000004 )
    -------------------------------------------------------------------------
<CODE> 1 (was CODE)
  Relative segment, address: E4C0 - E4C1 (0x2 bytes), align: 1
  Segment part 4.
           ENTRY                   ADDRESS         REF BY
           =====                   =======         ======
           reset_bluerobin         E4C0            init_global_variables (main)
               CSTACK = 00000000 ( 00000004 )
    -------------------------------------------------------------------------
<CODE> 1 (was CODE)
  Relative segment, address: E4BE - E4BF (0x2 bytes), align: 1
  Segment part 3.
           ENTRY                   ADDRESS         REF BY
           =====                   =======         ======
           get_bluerobin_data      E4BE            TIMER0_A0_ISR (timer)
               CSTACK = 00000000 ( 00000004 )
    -------------------------------------------------------------------------
DATA16_Z
  Relative segment, address: 1C96 - 1CAD (0x18 bytes), align: 1
  Segment part 2.
           ENTRY                   ADDRESS         REF BY
           =====                   =======         ======
           sBlueRobin              1C96            radio_ISR (radio)

    *************************************************************************

  FILE NAME : D:\ALaurent\Temp\git\EZ430-MyChronos\Sports Watch\915MHz - Limited IAR KickStart (USA)\Obj\bmp_as.r43
  PROGRAM MODULE, NAME : bmp_as

  SEGMENTS IN THE MODULE
  ======================
DATA16_AN
  Relative segment, address: 05C0 - 05C1 (0x2 bytes), align: 0
  Segment part 4. ROOT.       Intra module refs:   bmp_as_start
                                                   cma_as_start (cma_as)
           ENTRY                   ADDRESS         REF BY
           =====                   =======         ======
           _A_UCA0CTLW0_L          05C0 
           LOCAL                   ADDRESS         
           =====                   =======         
           UCA0CTLW0               05C0 
           UCA0CTLW0_H             05C1 
           UCA0CTLW0_L             05C0 
    -------------------------------------------------------------------------
DATA16_AN
  Relative segment, address: 05C6 - 05C7 (0x2 bytes), align: 0
  Segment part 5. ROOT.       Intra module refs:   bmp_as_start
                                                   cma_as_start (cma_as)
           ENTRY                   ADDRESS         REF BY
           =====                   =======         ======
           _A_UCA0BRW_L            05C6 
           LOCAL                   ADDRESS         
           =====                   =======         
           UCA0BRW                 05C6 
           UCA0BRW_H               05C7 
           UCA0BRW_L               05C6 
    -------------------------------------------------------------------------
<CODE> 1 (was CODE)
  Relative segment, address: BF62 - BFC5 (0x64 bytes), align: 1
  Segment part 11.
           ENTRY                   ADDRESS         REF BY
           =====                   =======         ======
           bmp_as_start            BF62            display_acceleration (acceleration)
                                                   start_simpliciti_tx_only (rfsimpliciti)
               calls direct
               CSTACK = 00000000 ( 00000004 )
    -------------------------------------------------------------------------
<CODE> 1 (was CODE)
  Relative segment, address: E4A2 - E4A5 (0x4 bytes), align: 1
  Segment part 10.
           ENTRY                   ADDRESS         REF BY
           =====                   =======         ======
           bmp_as_stop             E4A2            ?Subroutine2 (rfsimpliciti)
                                                   TIMER0_A0_ISR (timer)
                                                   display_acceleration (acceleration)
               calls direct
               CSTACK = 00000000 ( 00000004 )
    -------------------------------------------------------------------------
<CODE> 1 (was CODE)
  Relative segment, address: E3FC - E403 (0x8 bytes), align: 1
  Segment part 9.             Intra module refs:   bmp_as_get_data
           ENTRY                   ADDRESS         REF BY
           =====                   =======         ======
           bmp_as_read_register    E3FC 
               calls direct
               CSTACK = 00000000 ( 00000004 )
    -------------------------------------------------------------------------
<CODE> 1 (was CODE)
  Relative segment, address: E4A6 - E4A9 (0x4 bytes), align: 1
  Segment part 8.             Intra module refs:   bmp_as_start
           ENTRY                   ADDRESS         REF BY
           =====                   =======         ======
           bmp_as_write_register   E4A6 
               calls direct
               CSTACK = 00000000 ( 00000004 )
    -------------------------------------------------------------------------
<CODE> 1 (was CODE)
  Relative segment, address: C3F4 - C445 (0x52 bytes), align: 1
  Segment part 7.
           ENTRY                   ADDRESS         REF BY
           =====                   =======         ======
           bmp_as_get_data         C3F4            do_acceleration_measurement (acceleration)
                                                   simpliciti_get_ed_data_callback (rfsimpliciti)
                                                   sx_acceleration (acceleration)
               calls direct
               CSTACK = 00000000 ( 00000006 )

    *************************************************************************

  FILE NAME : D:\ALaurent\Temp\git\EZ430-MyChronos\Sports Watch\915MHz - Limited IAR KickStart (USA)\Obj\bmp_ps.r43
  PROGRAM MODULE, NAME : bmp_ps

  SEGMENTS IN THE MODULE
  ======================
DATA16_Z
  Relative segment, address: 1CAE - 1CC3 (0x16 bytes), align: 1
  Segment part 2.             Intra module refs:   bmp_ps_get_cal_param
                                                   bmp_ps_get_pa
                                                   bmp_ps_get_temp
           ENTRY                   ADDRESS         REF BY
           =====                   =======         ======
           bmp_cal_param           1CAE 
    -------------------------------------------------------------------------
DATA16_Z
  Relative segment, address: 1CC4 - 1CC7 (0x4 bytes), align: 1
  Segment part 3.             Intra module refs:   bmp_ps_get_pa
                                                   bmp_ps_get_temp
           ENTRY                   ADDRESS         REF BY
           =====                   =======         ======
           bmp_param_b5            1CC4 
    -------------------------------------------------------------------------
<CODE> 1 (was CODE)
  Relative segment, address: D2C2 - D2EF (0x2e bytes), align: 1
  Segment part 19.
           ENTRY                   ADDRESS         REF BY
           =====                   =======         ======
           bmp_ps_init             D2C2            init_application (main)
               calls direct
               CSTACK = 00000000 ( 00000006 )
    -------------------------------------------------------------------------
<CODE> 1 (was CODE)
  Relative segment, address: B2D0 - B36B (0x9c bytes), align: 1
  Segment part 18.            Intra module refs:   bmp_ps_init
           ENTRY                   ADDRESS         REF BY
           =====                   =======         ======
           bmp_ps_get_cal_param    B2D0 
               calls direct
               CSTACK = 00000000 ( 00000004 )
    -------------------------------------------------------------------------
<CODE> 1 (was CODE)
  Relative segment, address: E1EA - E1F5 (0xc bytes), align: 1
  Segment part 17.
           ENTRY                   ADDRESS         REF BY
           =====                   =======         ======
           bmp_ps_start            E1EA            TIMER0_A0_ISR (timer)
                                                   start_altitude_measurement (altitude)
               calls direct
               CSTACK = 00000000 ( 00000004 )
    -------------------------------------------------------------------------
<CODE> 1 (was CODE)
  Relative segment, address: E4BC - E4BD (0x2 bytes), align: 1
  Segment part 16.
           ENTRY                   ADDRESS         REF BY
           =====                   =======         ======
           bmp_ps_stop             E4BC            stop_altitude_measurement (altitude)
               CSTACK = 00000000 ( 00000004 )
    -------------------------------------------------------------------------
<CODE> 1 (was CODE)
  Relative segment, address: E1DE - E1E9 (0xc bytes), align: 1
  Segment part 15.            Intra module refs:   bmp_ps_start
           ENTRY                   ADDRESS         REF BY
           =====                   =======         ======
           bmp_ps_write_register   E1DE            do_altitude_measurement (altitude)
               calls direct
               CSTACK = 00000000 ( 00000004 )
    -------------------------------------------------------------------------
<CODE> 1 (was CODE)
  Relative segment, address: E1D2 - E1DD (0xc bytes), align: 1
  Segment part 14.            Intra module refs:   ?Subroutine3
                                                   bmp_ps_get_cal_param
                                                   bmp_ps_init
           ENTRY                   ADDRESS         REF BY
           =====                   =======         ======
           bmp_ps_read_register    E1D2 
               calls direct
               CSTACK = 00000000 ( 00000004 )
    -------------------------------------------------------------------------
<CODE> 1 (was CODE)
  Relative segment, address: 99F0 - 9B2B (0x13c bytes), align: 1
  Segment part 5.
           ENTRY                   ADDRESS         REF BY
           =====                   =======         ======
           bmp_ps_get_pa           99F0            do_altitude_measurement (altitude)
               calls direct
               CSTACK = 00000000 ( 00000014 )
    -------------------------------------------------------------------------
<CODE> 1 (was CODE)
  Relative segment, address: E034 - E041 (0xe bytes), align: 1
  Segment part 6.             Intra module refs:   bmp_ps_get_pa
           LOCAL                   ADDRESS         
           =====                   =======         
           ?Subroutine5            E034 
    -------------------------------------------------------------------------
<CODE> 1 (was CODE)
  Relative segment, address: E3A2 - E3AB (0xa bytes), align: 1
  Segment part 7.             Intra module refs:   bmp_ps_get_pa
           LOCAL                   ADDRESS         
           =====                   =======         
           ?Subroutine4            E3A2 
    -------------------------------------------------------------------------
<CODE> 1 (was CODE)
  Relative segment, address: E398 - E3A1 (0xa bytes), align: 1
  Segment part 8.             Intra module refs:   ?Subroutine2
                                                   ?Subroutine4
                                                   bmp_ps_get_temp
           LOCAL                   ADDRESS         
           =====                   =======         
           ?Subroutine6            E398 
    -------------------------------------------------------------------------
<CODE> 1 (was CODE)
  Relative segment, address: E00A - E017 (0xe bytes), align: 1
  Segment part 9.             Intra module refs:   bmp_ps_get_pa
                                                   bmp_ps_get_temp
           LOCAL                   ADDRESS         
           =====                   =======         
           ?Subroutine3            E00A 
    -------------------------------------------------------------------------
<CODE> 1 (was CODE)
  Relative segment, address: E1C6 - E1D1 (0xc bytes), align: 1
  Segment part 10.            Intra module refs:   bmp_ps_get_pa
           LOCAL                   ADDRESS         
           =====                   =======         
           ?Subroutine2            E1C6 
    -------------------------------------------------------------------------
<CODE> 1 (was CODE)
  Relative segment, address: E1A2 - E1AD (0xc bytes), align: 1
  Segment part 11.            Intra module refs:   bmp_ps_get_pa
           LOCAL                   ADDRESS         
           =====                   =======         
           ?Subroutine1            E1A2 
    -------------------------------------------------------------------------
<CODE> 1 (was CODE)
  Relative segment, address: DFFA - E003 (0xa bytes), align: 1
  Segment part 12.            Intra module refs:   bmp_ps_get_pa
                                                   bmp_ps_get_temp
           LOCAL                   ADDRESS         
           =====                   =======         
           ?Subroutine0            DFFA 
    -------------------------------------------------------------------------
<CODE> 1 (was CODE)
  Relative segment, address: E004 - E009 (0x6 bytes), align: 1
  Segment part 13.            Intra module refs:   ?Subroutine0
                                                   bmp_ps_get_pa
                                                   bmp_ps_get_temp
    -------------------------------------------------------------------------
<CODE> 1 (was CODE)
  Relative segment, address: BFC6 - C027 (0x62 bytes), align: 1
  Segment part 4.
           ENTRY                   ADDRESS         REF BY
           =====                   =======         ======
           bmp_ps_get_temp         BFC6            do_altitude_measurement (altitude)
               calls direct
               CSTACK = 00000000 ( 0000000C )

    *************************************************************************

  FILE NAME : D:\ALaurent\Temp\git\EZ430-MyChronos\Sports Watch\simpliciti\CC430_End_Device_915MHz.r43
  LIBRARY MODULE, NAME : bsp

  SEGMENTS IN THE MODULE
  ======================
DATA16_AN
  Relative segment, address: 0222 - 0223 (0x2 bytes), align: 0
  Segment part 4. ROOT.
           ENTRY                   ADDRESS         REF BY
           =====                   =======         ======
           _A_PBOUT_L              0222 
           LOCAL                   ADDRESS         
           =====                   =======         
           PBOUT                   0222 
           PBOUT_H                 0223 
           PBOUT_L                 0222 
    -------------------------------------------------------------------------
DATA16_AN
  Relative segment, address: 0224 - 0225 (0x2 bytes), align: 0
  Segment part 5. ROOT.
           ENTRY                   ADDRESS         REF BY
           =====                   =======         ======
           _A_PBDIR_L              0224 
           LOCAL                   ADDRESS         
           =====                   =======         
           PBDIR                   0224 
           PBDIR_H                 0225 
           PBDIR_L                 0224 
    -------------------------------------------------------------------------
DATA16_AN
  Relative segment, address: 0124 - 0125 (0x2 bytes), align: 0
  Segment part 7. ROOT.       Intra module refs:   SetVCoreUp
                                                   SetVCoreUp (pmm)
           ENTRY                   ADDRESS         REF BY
           =====                   =======         ======
           _A_SVSMHCTL_L           0124 
           LOCAL                   ADDRESS         
           =====                   =======         
           SVSMHCTL                0124 
           SVSMHCTL_H              0125 
           SVSMHCTL_L              0124 
    -------------------------------------------------------------------------
DATA16_AN
  Relative segment, address: 0126 - 0127 (0x2 bytes), align: 0
  Segment part 8. ROOT.       Intra module refs:   SetVCore
                                                   SetVCoreDown (pmm)
                                                   SetVCoreUp
                                                   SetVCoreUp (pmm)
           ENTRY                   ADDRESS         REF BY
           =====                   =======         ======
           _A_SVSMLCTL_L           0126 
           LOCAL                   ADDRESS         
           =====                   =======         
           SVSMLCTL                0126 
           SVSMLCTL_H              0127 
           SVSMLCTL_L              0126 
    -------------------------------------------------------------------------
DATA16_AN
  Relative segment, address: 012C - 012D (0x2 bytes), align: 0
  Segment part 9. ROOT.       Intra module refs:   SetVCore
                                                   SetVCoreDown (pmm)
                                                   SetVCoreUp
                                                   SetVCoreUp (pmm)
           ENTRY                   ADDRESS         REF BY
           =====                   =======         ======
           _A_PMMIFG_L             012C 
           LOCAL                   ADDRESS         
           =====                   =======         
           PMMIFG                  012C 
           PMMIFG_H                012D 
           PMMIFG_L                012C 
    -------------------------------------------------------------------------
DATA16_AN
  Relative segment, address: 0380 - 0381 (0x2 bytes), align: 0
  Segment part 11. ROOT.      Intra module refs:   BSP_Delay
                                                   BSP_InitBoard
                                                   start_buzzer (buzzer)
                                                   stop_buzzer (buzzer)
                                                   toggle_buzzer (buzzer)
           ENTRY                   ADDRESS         REF BY
           =====                   =======         ======
           TA1CTL                  0380 
    -------------------------------------------------------------------------
DATA16_AN
  Relative segment, address: 0382 - 0383 (0x2 bytes), align: 0
  Segment part 12. ROOT.      Intra module refs:   BSP_Delay
                                                   start_buzzer (buzzer)
                                                   stop_buzzer (buzzer)
           ENTRY                   ADDRESS         REF BY
           =====                   =======         ======
           TA1CCTL0                0382 
    -------------------------------------------------------------------------
DATA16_AN
  Relative segment, address: 0390 - 0391 (0x2 bytes), align: 0
  Segment part 13. ROOT.      Intra module refs:   BSP_Delay
                                                   toggle_buzzer (buzzer)
           ENTRY                   ADDRESS         REF BY
           =====                   =======         ======
           TA1R                    0390 
    -------------------------------------------------------------------------
DATA16_AN
  Relative segment, address: 0392 - 0393 (0x2 bytes), align: 0
  Segment part 14. ROOT.      Intra module refs:   BSP_Delay
                                                   start_buzzer (buzzer)
           ENTRY                   ADDRESS         REF BY
           =====                   =======         ======
           TA1CCR0                 0392 
    -------------------------------------------------------------------------
<CODE> 1 (was CODE)
  Relative segment, address: CA5A - CA99 (0x40 bytes), align: 1
  Segment part 31.            Intra module refs:   __low_level_init
           LOCAL                   ADDRESS         
           =====                   =======         
           SetVCore                CA5A 
               calls direct
               CSTACK = 00000000 ( 00000006 )
    -------------------------------------------------------------------------
<CODE> 1 (was CODE)
  Relative segment, address: CB52 - CB8D (0x3c bytes), align: 1
  Segment part 30.            Intra module refs:   SetVCore
           LOCAL                   ADDRESS         
           =====                   =======         
           SetVCoreUp              CB52 
               CSTACK = 00000000 ( 00000004 )
    -------------------------------------------------------------------------
<CODE> 1 (was CODE)
  Relative segment, address: DF4A - DF59 (0x10 bytes), align: 1
  Segment part 32.            Intra module refs:   SetVCore
                                                   SetVCoreUp
           LOCAL                   ADDRESS         
           =====                   =======         
           ?Subroutine0            DF4A 
    -------------------------------------------------------------------------
<CODE> 1 (was CODE)
  Relative segment, address: C834 - C87D (0x4a bytes), align: 1
  Segment part 29.            Intra module refs:   __low_level_init
           LOCAL                   ADDRESS         
           =====                   =======         
           Bsp_SetClocks           C834 
               CSTACK = 00000000 ( 00000004 )
    -------------------------------------------------------------------------
<CODE> 1 (was CODE)
  Relative segment, address: DC2A - DC3F (0x16 bytes), align: 1
  Segment part 28. ROOT.
           ENTRY                   ADDRESS         REF BY
           =====                   =======         ======
           __low_level_init        DC2A            ?cstart_call_low_level_init (?cstart)
               calls direct
               CSTACK = 00000000 ( 00000004 )
    -------------------------------------------------------------------------
<CODE> 1 (was CODE)
  Relative segment, address: DFBA - DFC9 (0x10 bytes), align: 1
  Segment part 27.
           ENTRY                   ADDRESS         REF BY
           =====                   =======         ======
           BSP_InitBoard           DFBA            simpliciti_link (main_ED_BM)
               CSTACK = 00000000 ( 00000004 )
    -------------------------------------------------------------------------
<CODE> 1 (was CODE)
  Relative segment, address: D024 - D055 (0x32 bytes), align: 1
  Segment part 26.
           ENTRY                   ADDRESS         REF BY
           =====                   =======         ======
           BSP_Delay               D024            ?Subroutine3 (mrfi)
               CSTACK = 00000000 ( 00000004 )

    -------------------------------------------------------------------------
  LIBRARY MODULE, NAME : main_ED_BM

  SEGMENTS IN THE MODULE
  ======================
DATA16_Z
  Relative segment, address: 1D95 - 1D95 (0x1 bytes), align: 0
  Segment part 2.             Intra module refs:   Segment part 6
                                                   simpliciti_link
                                                   simpliciti_main_sync
           LOCAL                   ADDRESS         
           =====                   =======         
           sLinkID1                1D95 
    -------------------------------------------------------------------------
<CODE> 1 (was CODE)
  Relative segment, address: E0EA - E0EF (0x6 bytes), align: 1
  Segment part 7.             Intra module refs:   simpliciti_main_sync
                                                   simpliciti_main_tx_only
           LOCAL                   ADDRESS         
           =====                   =======         
           ?Subroutine0            E0EA 
    -------------------------------------------------------------------------
<CODE> 1 (was CODE)
  Relative segment, address: E0F0 - E0F7 (0x8 bytes), align: 1
  Segment part 8.             Intra module refs:   ?Subroutine0
                                                   simpliciti_link
                                                   simpliciti_main_sync
                                                   simpliciti_main_tx_only
    -------------------------------------------------------------------------
<CODE> 1 (was CODE)
  Relative segment, address: B66A - B701 (0x98 bytes), align: 1
  Segment part 9.
           ENTRY                   ADDRESS         REF BY
           =====                   =======         ======
           simpliciti_link         B66A            ?Subroutine5 (rfsimpliciti)
               calls direct
               CSTACK = 00000000 ( 0000000C )
    -------------------------------------------------------------------------
<CODE> 1 (was CODE)
  Relative segment, address: DE88 - DE99 (0x12 bytes), align: 1
  Segment part 10.            Intra module refs:   simpliciti_link
           LOCAL                   ADDRESS         
           =====                   =======         
           ?Subroutine1            DE88 
    -------------------------------------------------------------------------
<CODE> 1 (was CODE)
  Relative segment, address: D1AC - D1DB (0x30 bytes), align: 1
  Segment part 4.
           ENTRY                   ADDRESS         REF BY
           =====                   =======         ======
           simpliciti_main_tx_only
                                   D1AC            start_simpliciti_tx_only (rfsimpliciti)
               calls direct
               CSTACK = 00000000 ( 00000004 )
    -------------------------------------------------------------------------
<CODE> 1 (was CODE)
  Relative segment, address: E2CE - E2D1 (0x4 bytes), align: 1
  Segment part 5.             Intra module refs:   simpliciti_main_sync
                                                   simpliciti_main_tx_only
           LOCAL                   ADDRESS         
           =====                   =======         
           ?Subroutine2            E2CE 
    -------------------------------------------------------------------------
<CODE> 1 (was CODE)
  Relative segment, address: E2D2 - E2D9 (0x8 bytes), align: 1
  Segment part 6.             Intra module refs:   ?Subroutine2
                                                   simpliciti_main_sync
    -------------------------------------------------------------------------
<CODE> 1 (was CODE)
  Relative segment, address: B8B8 - B949 (0x92 bytes), align: 1
  Segment part 3.
           ENTRY                   ADDRESS         REF BY
           =====                   =======         ======
           simpliciti_main_sync    B8B8            start_simpliciti_sync (rfsimpliciti)
               calls direct
               CSTACK = 00000000 ( 0000000A )

    -------------------------------------------------------------------------
  LIBRARY MODULE, NAME : mrfi

  SEGMENTS IN THE MODULE
  ======================
DATA16_AN
  Relative segment, address: 0F02 - 0F03 (0x2 bytes), align: 0
  Segment part 1. ROOT.       Intra module refs:   MRFI_Init
                                                   Strobe (rf1a)
                                                   WriteSingleReg (rf1a)
                                                   mrfiRadioInterfaceCmdStrobe
                                                   mrfiRadioInterfaceReadReg
                                                   mrfiRadioInterfaceReadRxFifo
                                                   mrfiRadioInterfaceWriteReg
                                                   mrfiRadioInterfaceWriteTxFifo
           ENTRY                   ADDRESS         REF BY
           =====                   =======         ======
           _A_RF1AIFCTL1_L         0F02 
           LOCAL                   ADDRESS         
           =====                   =======         
           RF1AIFCTL1              0F02 
           RF1AIFCTL1_H            0F03 
           RF1AIFCTL1_L            0F02 
    -------------------------------------------------------------------------
DATA16_AN
  Relative segment, address: 0F0C - 0F0D (0x2 bytes), align: 0
  Segment part 2. ROOT.       Intra module refs:   MRFI_RadioIsr
           ENTRY                   ADDRESS         REF BY
           =====                   =======         ======
           _A_RF1AIFERRV_L         0F0C 
           LOCAL                   ADDRESS         
           =====                   =======         
           RF1AIFERRV              0F0C 
           RF1AIFERRV_H            0F0D 
           RF1AIFERRV_L            0F0C 
    -------------------------------------------------------------------------
DATA16_AN
  Relative segment, address: 0F0E - 0F0F (0x2 bytes), align: 0
  Segment part 3. ROOT.       Intra module refs:   MRFI_RadioIsr
           ENTRY                   ADDRESS         REF BY
           =====                   =======         ======
           _A_RF1AIFIV_L           0F0E 
           LOCAL                   ADDRESS         
           =====                   =======         
           RF1AIFIV                0F0E 
           RF1AIFIV_H              0F0F 
           RF1AIFIV_L              0F0E 
    -------------------------------------------------------------------------
DATA16_AN
  Relative segment, address: 0F10 - 0F11 (0x2 bytes), align: 0
  Segment part 4. ROOT.       Intra module refs:   MRFI_Init
                                                   Strobe (rf1a)
                                                   WriteSingleReg (rf1a)
                                                   mrfiRadioInterfaceCmdStrobe
                                                   mrfiRadioInterfaceReadRxFifo
                                                   mrfiRadioInterfaceWriteReg
                                                   mrfiRadioInterfaceWriteTxFifo
           ENTRY                   ADDRESS         REF BY
           =====                   =======         ======
           _A_RF1AINSTRW_L         0F10 
           LOCAL                   ADDRESS         
           =====                   =======         
           RF1AINSTRW              0F10 
           RF1AINSTRW_H            0F11 
           RF1AINSTRW_L            0F10 
    -------------------------------------------------------------------------
DATA16_AN
  Relative segment, address: 0F12 - 0F13 (0x2 bytes), align: 0
  Segment part 5. ROOT.       Intra module refs:   ReadSingleReg (rf1a)
                                                   mrfiRadioInterfaceReadReg
                                                   mrfiRadioInterfaceReadRxFifo
           ENTRY                   ADDRESS         REF BY
           =====                   =======         ======
           _A_RF1AINSTR1W_L        0F12 
           LOCAL                   ADDRESS         
           =====                   =======         
           RF1AINSTR1W             0F12 
           RF1AINSTR1W_H           0F13 
           RF1AINSTR1W_L           0F12 
    -------------------------------------------------------------------------
DATA16_AN
  Relative segment, address: 0F20 - 0F21 (0x2 bytes), align: 0
  Segment part 6. ROOT.       Intra module refs:   MRFI_Init
                                                   Strobe (rf1a)
                                                   WriteSingleReg (rf1a)
                                                   mrfiRadioInterfaceCmdStrobe
                                                   mrfiRadioInterfaceReadRxFifo
           ENTRY                   ADDRESS         REF BY
           =====                   =======         ======
           _A_RF1ASTAT0W_L         0F20 
           LOCAL                   ADDRESS         
           =====                   =======         
           RF1ASTAT0W              0F20 
           RF1ASTAT0W_H            0F21 
           RF1ASTAT0W_L            0F20 
    -------------------------------------------------------------------------
DATA16_AN
  Relative segment, address: 0F22 - 0F23 (0x2 bytes), align: 0
  Segment part 7. ROOT.       Intra module refs:   ReadSingleReg (rf1a)
                                                   mrfiRadioInterfaceReadReg
                                                   mrfiRadioInterfaceReadRxFifo
           ENTRY                   ADDRESS         REF BY
           =====                   =======         ======
           _A_RF1ASTAT1W_L         0F22 
           LOCAL                   ADDRESS         
           =====                   =======         
           RF1ASTAT1W              0F22 
           RF1ASTAT1W_H            0F23 
           RF1ASTAT1W_L            0F22 
    -------------------------------------------------------------------------
DATA16_AN
  Relative segment, address: 0F30 - 0F31 (0x2 bytes), align: 0
  Segment part 8. ROOT.       Intra module refs:   MRFI_Init
                                                   MRFI_Rssi
                                                   MRFI_Transmit
                                                   Strobe (rf1a)
                                                   mrfiRadioInterfaceCmdStrobe
           ENTRY                   ADDRESS         REF BY
           =====                   =======         ======
           _A_RF1AIN_L             0F30 
           LOCAL                   ADDRESS         
           =====                   =======         
           RF1AIN                  0F30 
           RF1AIN_H                0F31 
           RF1AIN_L                0F30 
    -------------------------------------------------------------------------
DATA16_AN
  Relative segment, address: 0F32 - 0F33 (0x2 bytes), align: 0
  Segment part 9. ROOT.       Intra module refs:   MRFI_RadioIsr
                                                   MRFI_Transmit
                                                   Mrfi_RxModeOff
                                                   Mrfi_RxModeOn
                                                   close_radio (radio)
                                                   open_radio (radio)
           ENTRY                   ADDRESS         REF BY
           =====                   =======         ======
           _A_RF1AIFG_L            0F32 
           LOCAL                   ADDRESS         
           =====                   =======         
           RF1AIFG                 0F32 
           RF1AIFG_H               0F33 
           RF1AIFG_L               0F32 
    -------------------------------------------------------------------------
DATA16_AN
  Relative segment, address: 0F34 - 0F35 (0x2 bytes), align: 0
  Segment part 10. ROOT.      Intra module refs:   MRFI_Init
           ENTRY                   ADDRESS         REF BY
           =====                   =======         ======
           _A_RF1AIES_L            0F34 
           LOCAL                   ADDRESS         
           =====                   =======         
           RF1AIES                 0F34 
           RF1AIES_H               0F35 
           RF1AIES_L               0F34 
    -------------------------------------------------------------------------
DATA16_AN
  Relative segment, address: 0F36 - 0F37 (0x2 bytes), align: 0
  Segment part 11. ROOT.      Intra module refs:   MRFI_RadioIsr
                                                   Mrfi_RxModeOff
                                                   Mrfi_RxModeOn
                                                   close_radio (radio)
                                                   open_radio (radio)
           ENTRY                   ADDRESS         REF BY
           =====                   =======         ======
           _A_RF1AIE_L             0F36 
           LOCAL                   ADDRESS         
           =====                   =======         
           RF1AIE                  0F36 
           RF1AIE_H                0F37 
           RF1AIE_L                0F36 
    -------------------------------------------------------------------------
DATA16_AN
  Relative segment, address: 0F38 - 0F39 (0x2 bytes), align: 0
  Segment part 12. ROOT.      Intra module refs:   MRFI_RadioIsr
                                                   radio_ISR (radio)
           ENTRY                   ADDRESS         REF BY
           =====                   =======         ======
           _A_RF1AIV_L             0F38 
           LOCAL                   ADDRESS         
           =====                   =======         
           RF1AIV                  0F38 
           RF1AIV_H                0F39 
           RF1AIV_L                0F38 
    -------------------------------------------------------------------------
DATA16_C
  Relative segment, address: 8158 - 815B (0x4 bytes), align: 0
  Segment part 14.            Intra module refs:   Mrfi_RxAddrIsFiltered
           ENTRY                   ADDRESS         REF BY
           =====                   =======         ======
           mrfiBroadcastAddr       8158            nwk_getBCastAddress (nwk_globals)
    -------------------------------------------------------------------------
DATA16_C
  Relative segment, address: 815C - 8195 (0x3a bytes), align: 0
  Segment part 15.            Intra module refs:   MRFI_Init
           ENTRY                   ADDRESS         REF BY
           =====                   =======         ======
           mrfiRadioCfg            815C 
    -------------------------------------------------------------------------
DATA16_C
  Relative segment, address: 8196 - 8199 (0x4 bytes), align: 0
  Segment part 16.            Intra module refs:   MRFI_SetLogicalChannel
           LOCAL                   ADDRESS         
           =====                   =======         
           mrfiLogicalChanTable    8196 
    -------------------------------------------------------------------------
DATA16_C
  Relative segment, address: 819A - 819C (0x3 bytes), align: 0
  Segment part 17.            Intra module refs:   MRFI_SetRFPwr
           LOCAL                   ADDRESS         
           =====                   =======         
           mrfiRFPowerTable        819A 
    -------------------------------------------------------------------------
DATA16_C
  Relative segment, address: 819D - 819F (0x3 bytes), align: 0
  Segment part 18.            Intra module refs:   MRFI_SetRFPwr
           LOCAL                   ADDRESS         
           =====                   =======         
           mrfiRFPowerTable_B      819D 
    -------------------------------------------------------------------------
DATA16_Z
  Relative segment, address: 1D96 - 1D96 (0x1 bytes), align: 0
  Segment part 19.            Intra module refs:   ?Subroutine1
                                                   ?Subroutine12
                                                   ?Subroutine16
                                                   ?Subroutine19
                                                   MRFI_GetRadioState
                                                   MRFI_RxIdle
                                                   MRFI_RxOn
                                                   MRFI_Sleep
                                                   MRFI_Transmit
                                                   MRFI_WakeUp
           LOCAL                   ADDRESS         
           =====                   =======         
           mrfiRadioState          1D96 
    -------------------------------------------------------------------------
DATA16_Z
  Relative segment, address: 1D97 - 1DB7 (0x21 bytes), align: 0
  Segment part 20.            Intra module refs:   MRFI_Init
                                                   MRFI_Receive
                                                   Mrfi_SyncPinRxIsr
                                                   Segment part 72
           LOCAL                   ADDRESS         
           =====                   =======         
           mrfiIncomingPacket      1D97 
    -------------------------------------------------------------------------
DATA16_Z
  Relative segment, address: 1DB8 - 1DB8 (0x1 bytes), align: 0
  Segment part 21.            Intra module refs:   MRFI_Init
                                                   MRFI_RandomByte
           LOCAL                   ADDRESS         
           =====                   =======         
           mrfiRndSeed             1DB8 
    -------------------------------------------------------------------------
DATA16_Z
  Relative segment, address: 1DB9 - 1DB9 (0x1 bytes), align: 0
  Segment part 22.            Intra module refs:   MRFI_PostKillSem
                                                   MRFI_ReplyDelay
           LOCAL                   ADDRESS         
           =====                   =======         
           sKillSem                1DB9 
    -------------------------------------------------------------------------
DATA16_Z
  Relative segment, address: 1DBA - 1DBA (0x1 bytes), align: 0
  Segment part 23.            Intra module refs:   MRFI_PostKillSem
                                                   MRFI_ReplyDelay
           LOCAL                   ADDRESS         
           =====                   =======         
           sReplyDelayContext      1DBA 
    -------------------------------------------------------------------------
DATA16_Z
  Relative segment, address: 1CC8 - 1CC9 (0x2 bytes), align: 1
  Segment part 24.            Intra module refs:   MRFI_Init
                                                   MRFI_ReplyDelay
           LOCAL                   ADDRESS         
           =====                   =======         
           sReplyDelayScalar       1CC8 
    -------------------------------------------------------------------------
DATA16_Z
  Relative segment, address: 1CCA - 1CCB (0x2 bytes), align: 1
  Segment part 25.            Intra module refs:   MRFI_Init
                                                   MRFI_Transmit
           LOCAL                   ADDRESS         
           =====                   =======         
           sBackoffHelper          1CCA 
    -------------------------------------------------------------------------
DATA16_Z
  Relative segment, address: 1DBB - 1DBB (0x1 bytes), align: 0
  Segment part 26.            Intra module refs:   MRFI_EnableRxAddrFilter
                                                   Mrfi_RxAddrIsFiltered
           LOCAL                   ADDRESS         
           =====                   =======         
           mrfiRxFilterEnabled     1DBB 
    -------------------------------------------------------------------------
DATA16_I
  Relative segment, address: 1C54 - 1C57 (0x4 bytes), align: 0
  Segment part 27.            Intra module refs:   MRFI_EnableRxAddrFilter
                                                   MRFI_SetRxAddrFilter
                                                   Mrfi_RxAddrIsFiltered
           LOCAL                   ADDRESS         
           =====                   =======         
           mrfiRxFilterAddr        1C54 
    -------------------------------------------------------------------------
DATA16_Z
  Relative segment, address: 1CCC - 1CCF (0x4 bytes), align: 1
  Segment part 29.            Intra module refs:   Mrfi_SyncPinRxIsr
           LOCAL                   ADDRESS         
           =====                   =======         
           crcFail                 1CCC 
    -------------------------------------------------------------------------
DATA16_Z
  Relative segment, address: 1CD0 - 1CD3 (0x4 bytes), align: 1
  Segment part 30.            Intra module refs:   Mrfi_SyncPinRxIsr
           LOCAL                   ADDRESS         
           =====                   =======         
           crcPass                 1CD0 
    -------------------------------------------------------------------------
DATA16_Z
  Relative segment, address: 1CD4 - 1CD7 (0x4 bytes), align: 1
  Segment part 31.            Intra module refs:   Mrfi_SyncPinRxIsr
           LOCAL                   ADDRESS         
           =====                   =======         
           noFrame                 1CD4 
    -------------------------------------------------------------------------
<CODE> 1 (was CODE)
  Relative segment, address: E2E4 - E2ED (0xa bytes), align: 1
  Segment part 38.            Intra module refs:   MRFI_Init
                                                   mrfiRadioInterfaceWriteReg
                                                   mrfiRadioInterfaceWriteTxFifo
           LOCAL                   ADDRESS         
           =====                   =======         
           ?Subroutine6            E2E4 
    -------------------------------------------------------------------------
<CODE> 1 (was CODE)
  Relative segment, address: B36C - B375 (0xa bytes), align: 1
  Segment part 41.            Intra module refs:   MRFI_Init
                                                   mrfiRadioInterfaceReadReg
                                                   mrfiRadioInterfaceWriteReg
                                                   mrfiRadioInterfaceWriteTxFifo
           LOCAL                   ADDRESS         
           =====                   =======         
           ?Subroutine0            B36C 
    -------------------------------------------------------------------------
<CODE> 1 (was CODE)
  Relative segment, address: B376 - B3FD (0x88 bytes), align: 1
  Segment part 42.            Intra module refs:   ?Subroutine13
                                                   ?Subroutine15
                                                   ?Subroutine19
                                                   ?Subroutine22
                                                   MRFI_Init
                                                   MRFI_Transmit
                                                   Segment part 80
           ENTRY                   ADDRESS         REF BY
           =====                   =======         ======
           mrfiRadioInterfaceCmdStrobe
                                   B376 
               calls direct
               CSTACK = 00000000 ( 00000008 )
    -------------------------------------------------------------------------
<CODE> 1 (was CODE)
  Relative segment, address: B3FE - B407 (0xa bytes), align: 1
  Segment part 43.            Intra module refs:   ?Subroutine0
                                                   ?Subroutine4
                                                   MRFI_Init
                                                   mrfiRadioInterfaceCmdStrobe
                                                   mrfiRadioInterfaceReadRxFifo
           LOCAL                   ADDRESS         
           =====                   =======         
           ?Subroutine21           B3FE 
    -------------------------------------------------------------------------
<CODE> 1 (was CODE)
  Relative segment, address: E3E4 - E3EB (0x8 bytes), align: 1
  Segment part 70.            Intra module refs:   ?Subroutine14
                                                   Mrfi_RxModeOn
                                                   Mrfi_SyncPinRxIsr
           LOCAL                   ADDRESS         
           =====                   =======         
           ?Subroutine22           E3E4 
    -------------------------------------------------------------------------
<CODE> 1 (was CODE)
  Relative segment, address: E114 - E117 (0x4 bytes), align: 1
  Segment part 71.            Intra module refs:   MRFI_Init
                                                   Mrfi_SyncPinRxIsr
           LOCAL                   ADDRESS         
           =====                   =======         
           ?Subroutine18           E114 
    -------------------------------------------------------------------------
<CODE> 1 (was CODE)
  Relative segment, address: E118 - E121 (0xa bytes), align: 1
  Segment part 72.            Intra module refs:   ?Subroutine18
                                                   MRFI_Init
    -------------------------------------------------------------------------
<CODE> 1 (was CODE)
  Relative segment, address: 8FEC - 9199 (0x1ae bytes), align: 1
  Segment part 77.
           ENTRY                   ADDRESS         REF BY
           =====                   =======         ======
           MRFI_Init               8FEC            SMPL_Init (nwk_api)
               calls direct
               CSTACK = 00000000 ( 0000000C )
    -------------------------------------------------------------------------
<CODE> 1 (was CODE)
  Relative segment, address: E106 - E113 (0xe bytes), align: 1
  Segment part 78.            Intra module refs:   MRFI_Init
                                                   MRFI_Sleep
           LOCAL                   ADDRESS         
           =====                   =======         
           ?Subroutine19           E106 
    -------------------------------------------------------------------------
<CODE> 1 (was CODE)
  Relative segment, address: E256 - E257 (0x2 bytes), align: 1
  Segment part 79.            Intra module refs:   MRFI_Init
           LOCAL                   ADDRESS         
           =====                   =======         
           ?Subroutine17           E256 
    -------------------------------------------------------------------------
<CODE> 1 (was CODE)
  Relative segment, address: E258 - E261 (0xa bytes), align: 1
  Segment part 80.            Intra module refs:   ?Subroutine17
                                                   MRFI_WakeUp
    -------------------------------------------------------------------------
<CODE> 1 (was CODE)
  Relative segment, address: E41C - E423 (0x8 bytes), align: 1
  Segment part 81.            Intra module refs:   MRFI_Init
                                                   MRFI_WakeUp
           LOCAL                   ADDRESS         
           =====                   =======         
           ?Subroutine15           E41C 
    -------------------------------------------------------------------------
<CODE> 1 (was CODE)
  Relative segment, address: E20E - E219 (0xc bytes), align: 1
  Segment part 82.            Intra module refs:   MRFI_Init
                                                   MRFI_Transmit
           LOCAL                   ADDRESS         
           =====                   =======         
           ?Subroutine14           E20E 
    -------------------------------------------------------------------------
<CODE> 1 (was CODE)
  Relative segment, address: DF6A - DF6F (0x6 bytes), align: 1
  Segment part 83.            Intra module refs:   MRFI_Rssi
                                                   Mrfi_SyncPinRxIsr
           LOCAL                   ADDRESS         
           =====                   =======         
           ?Subroutine12           DF6A 
    -------------------------------------------------------------------------
<CODE> 1 (was CODE)
  Relative segment, address: DF70 - DF79 (0xa bytes), align: 1
  Segment part 84.            Intra module refs:   ?Subroutine10
                                                   ?Subroutine11
                                                   ?Subroutine12
                                                   ?Subroutine7
                                                   MRFI_Init
                                                   MRFI_RadioIsr
                                                   MRFI_Transmit
           LOCAL                   ADDRESS         
           =====                   =======         
           ?Subroutine20           DF70 
    -------------------------------------------------------------------------
<CODE> 1 (was CODE)
  Relative segment, address: E32A - E333 (0xa bytes), align: 1
  Segment part 85.            Intra module refs:   MRFI_Init
           LOCAL                   ADDRESS         
           =====                   =======         
           ?Subroutine11           E32A 
    -------------------------------------------------------------------------
<CODE> 1 (was CODE)
  Relative segment, address: E334 - E33D (0xa bytes), align: 1
  Segment part 86.            Intra module refs:   MRFI_Init
           LOCAL                   ADDRESS         
           =====                   =======         
           ?Subroutine10           E334 
    -------------------------------------------------------------------------
<CODE> 1 (was CODE)
  Relative segment, address: E026 - E033 (0xe bytes), align: 1
  Segment part 87.            Intra module refs:   MRFI_Init
                                                   mrfiRadioInterfaceReadRxFifo
           LOCAL                   ADDRESS         
           =====                   =======         
           ?Subroutine9            E026 
    -------------------------------------------------------------------------
<CODE> 1 (was CODE)
  Relative segment, address: E33E - E347 (0xa bytes), align: 1
  Segment part 88.            Intra module refs:   MRFI_Init
           LOCAL                   ADDRESS         
           =====                   =======         
           ?Subroutine4            E33E 
    -------------------------------------------------------------------------
<CODE> 1 (was CODE)
  Relative segment, address: E196 - E1A1 (0xc bytes), align: 1
  Segment part 35.            Intra module refs:   MRFI_EnableRxAddrFilter
                                                   MRFI_Transmit
                                                   mrfiRadioInterfaceReadRxFifo
                                                   mrfiRadioInterfaceWriteTxFifo
           LOCAL                   ADDRESS         
           =====                   =======         
           ?Subroutine2            E196 
    -------------------------------------------------------------------------
<CODE> 1 (was CODE)
  Relative segment, address: D904 - D921 (0x1e bytes), align: 1
  Segment part 73.            Intra module refs:   MRFI_Transmit
                                                   Mrfi_RxModeOff
                                                   Mrfi_SyncPinRxIsr
           LOCAL                   ADDRESS         
           =====                   =======         
           ?Subroutine13           D904 
    -------------------------------------------------------------------------
<CODE> 1 (was CODE)
  Relative segment, address: B04A - B0ED (0xa4 bytes), align: 1
  Segment part 75.
           ENTRY                   ADDRESS         REF BY
           =====                   =======         ======
           MRFI_Transmit           B04A            nwk_sendAckReply (nwk_frame)
                                                   nwk_sendFrame (nwk_frame)
               calls direct
               CSTACK = 00000000 ( 0000000C )
    -------------------------------------------------------------------------
<CODE> 1 (was CODE)
  Relative segment, address: E07A - E087 (0xe bytes), align: 1
  Segment part 76.            Intra module refs:   MRFI_SetLogicalChannel
                                                   MRFI_Transmit
           LOCAL                   ADDRESS         
           =====                   =======         
           ?Subroutine16           E07A 
    -------------------------------------------------------------------------
<CODE> 1 (was CODE)
  Relative segment, address: E166 - E171 (0xc bytes), align: 1
  Segment part 74.
           ENTRY                   ADDRESS         REF BY
           =====                   =======         ======
           MRFI_Receive            E166            MRFI_RxCompleteISR (nwk_frame)
               CSTACK = 00000000 ( 00000004 )
    -------------------------------------------------------------------------
<CODE> 1 (was CODE)
  Relative segment, address: AD64 - AE25 (0xc2 bytes), align: 1
  Segment part 69.            Intra module refs:   MRFI_RadioIsr
           LOCAL                   ADDRESS         
           =====                   =======         
           Mrfi_SyncPinRxIsr       AD64 
               calls direct
               CSTACK = 00000000 ( 00000008 )
    -------------------------------------------------------------------------
<CODE> 1 (was CODE)
  Relative segment, address: DED0 - DEE1 (0x12 bytes), align: 1
  Segment part 68.            Intra module refs:   ?Subroutine16
                                                   MRFI_RxOn
           LOCAL                   ADDRESS         
           =====                   =======         
           Mrfi_RxModeOn           DED0 
               calls direct
               CSTACK = 00000000 ( 00000004 )
    -------------------------------------------------------------------------
<CODE> 1 (was CODE)
  Relative segment, address: DEBE - DECF (0x12 bytes), align: 1
  Segment part 66.
           ENTRY                   ADDRESS         REF BY
           =====                   =======         ======
           MRFI_RxOn               DEBE            ?Subroutine1 (nwk_api)
                                                   ?Subroutine1 (nwk_link)
                                                   nwk_join (nwk_join)
                                                   nwk_radioControl (nwk_ioctl)
               calls direct
               CSTACK = 00000000 ( 00000004 )
    -------------------------------------------------------------------------
<CODE> 1 (was CODE)
  Relative segment, address: DCEE - DD01 (0x14 bytes), align: 1
  Segment part 67.            Intra module refs:   MRFI_RxIdle
                                                   MRFI_RxOn
           LOCAL                   ADDRESS         
           =====                   =======         
           ?Subroutine1            DCEE 
    -------------------------------------------------------------------------
<CODE> 1 (was CODE)
  Relative segment, address: DE76 - DE87 (0x12 bytes), align: 1
  Segment part 65.            Intra module refs:   MRFI_Init
                                                   MRFI_RxIdle
                                                   MRFI_SetLogicalChannel
                                                   MRFI_Transmit
           LOCAL                   ADDRESS         
           =====                   =======         
           Mrfi_RxModeOff          DE76 
               calls direct
               CSTACK = 00000000 ( 00000004 )
    -------------------------------------------------------------------------
<CODE> 1 (was CODE)
  Relative segment, address: DFCA - DFD9 (0x10 bytes), align: 1
  Segment part 64.            Intra module refs:   MRFI_Sleep
           ENTRY                   ADDRESS         REF BY
           =====                   =======         ======
           MRFI_RxIdle             DFCA            ?Subroutine0 (nwk_api)
                                                   ?Subroutine2 (nwk_link)
                                                   nwk_join (nwk_join)
                                                   nwk_radioControl (nwk_ioctl)
               calls direct
               CSTACK = 00000000 ( 00000004 )
    -------------------------------------------------------------------------
<CODE> 1 (was CODE)
  Relative segment, address: DACC - DAE7 (0x1c bytes), align: 1
  Segment part 63.
           ENTRY                   ADDRESS         REF BY
           =====                   =======         ======
           MRFI_Sleep              DACC            ?Subroutine0 (nwk_api)
                                                   ?Subroutine2 (nwk_link)
                                                   nwk_join (nwk_join)
                                                   nwk_radioControl (nwk_ioctl)
               calls direct
               CSTACK = 00000000 ( 00000006 )
    -------------------------------------------------------------------------
<CODE> 1 (was CODE)
  Relative segment, address: DB1C - DB35 (0x1a bytes), align: 1
  Segment part 62.
           ENTRY                   ADDRESS         REF BY
           =====                   =======         ======
           MRFI_WakeUp             DB1C            ?Subroutine1 (nwk_api)
                                                   ?Subroutine1 (nwk_link)
                                                   SMPL_Init (nwk_api)
                                                   nwk_join (nwk_join)
                                                   nwk_radioControl (nwk_ioctl)
               calls direct
               CSTACK = 00000000 ( 00000004 )
    -------------------------------------------------------------------------
<CODE> 1 (was CODE)
  Relative segment, address: C08A - C0E9 (0x60 bytes), align: 1
  Segment part 61.
           ENTRY                   ADDRESS         REF BY
           =====                   =======         ======
           MRFI_RadioIsr           C08A            radio_ISR (radio)
               calls direct
               CSTACK = 00000000 ( 00000004 )
    -------------------------------------------------------------------------
<CODE> 1 (was CODE)
  Relative segment, address: DCC4 - DCD9 (0x16 bytes), align: 1
  Segment part 60.
           ENTRY                   ADDRESS         REF BY
           =====                   =======         ======
           MRFI_Rssi               DCC4            nwk_radioControl (nwk_ioctl)
               calls direct
               CSTACK = 00000000 ( 00000004 )
    -------------------------------------------------------------------------
<CODE> 1 (was CODE)
  Relative segment, address: D4CA - D4F1 (0x28 bytes), align: 1
  Segment part 59.            Intra module refs:   MRFI_Rssi
                                                   Mrfi_SyncPinRxIsr
           LOCAL                   ADDRESS         
           =====                   =======         
           Mrfi_CalculateRssi      D4CA 
               CSTACK = 00000000 ( 00000004 )
    -------------------------------------------------------------------------
<CODE> 1 (was CODE)
  Relative segment, address: DC6C - DC81 (0x16 bytes), align: 1
  Segment part 58.            Intra module refs:   MRFI_Transmit
           ENTRY                   ADDRESS         REF BY
           =====                   =======         ======
           MRFI_RandomByte         DC6C            nwk_frameInit (nwk_frame)
                                                   nwk_joinInit (nwk_join)
                                                   nwk_linkInit (nwk_link)
                                                   nwk_mgmtInit (nwk_mgmt)
                                                   nwk_pingInit (nwk_ping)
               CSTACK = 00000000 ( 00000004 )
    -------------------------------------------------------------------------
<CODE> 1 (was CODE)
  Relative segment, address: D922 - D93F (0x1e bytes), align: 1
  Segment part 56.            Intra module refs:   MRFI_DelayMs
                                                   MRFI_Transmit
                                                   mrfiRadioInterfaceCmdStrobe
           LOCAL                   ADDRESS         
           =====                   =======         
           Mrfi_DelayUsec          D922 
               calls direct
               CSTACK = 00000000 ( 00000008 )
    -------------------------------------------------------------------------
<CODE> 1 (was CODE)
  Relative segment, address: E18A - E195 (0xc bytes), align: 1
  Segment part 57.            Intra module refs:   MRFI_ReplyDelay
                                                   Mrfi_DelayUsec
           LOCAL                   ADDRESS         
           =====                   =======         
           ?Subroutine3            E18A 
    -------------------------------------------------------------------------
<CODE> 1 (was CODE)
  Relative segment, address: DC12 - DC29 (0x18 bytes), align: 1
  Segment part 55.
           ENTRY                   ADDRESS         REF BY
           =====                   =======         ======
           MRFI_DelayMs            DC12            ?Subroutine1 (main_ED_BM)
                                                   simpliciti_main_sync (main_ED_BM)
               calls direct
               CSTACK = 00000000 ( 00000006 )
    -------------------------------------------------------------------------
<CODE> 1 (was CODE)
  Relative segment, address: C58A - C5D7 (0x4e bytes), align: 1
  Segment part 54.
           ENTRY                   ADDRESS         REF BY
           =====                   =======         ======
           MRFI_ReplyDelay         C58A            SMPL_SendOpt (nwk_api)
                                                   nwk_join (nwk_join)
                                                   nwk_link (nwk_link)
               calls direct
               CSTACK = 00000000 ( 0000000C )
    -------------------------------------------------------------------------
<CODE> 1 (was CODE)
  Relative segment, address: E1BA - E1C5 (0xc bytes), align: 1
  Segment part 53.
           ENTRY                   ADDRESS         REF BY
           =====                   =======         ======
           MRFI_PostKillSem        E1BA            nwk_isConnectionValid (nwk)
                                                   nwk_processJoin (nwk_join)
                                                   nwk_processLink (nwk_link)
                                                   nwk_processMgmt (nwk_mgmt)
                                                   nwk_processPing (nwk_ping)
               CSTACK = 00000000 ( 00000004 )
    -------------------------------------------------------------------------
<CODE> 1 (was CODE)
  Relative segment, address: E448 - E44D (0x6 bytes), align: 1
  Segment part 52.
           ENTRY                   ADDRESS         REF BY
           =====                   =======         ======
           MRFI_GetRadioState      E448            SMPL_SendOpt (nwk_api)
                                                   nwk_join (nwk_join)
                                                   nwk_link (nwk_link)
               CSTACK = 00000000 ( 00000004 )
    -------------------------------------------------------------------------
<CODE> 1 (was CODE)
  Relative segment, address: E3B6 - E3BF (0xa bytes), align: 1
  Segment part 50.            Intra module refs:   MRFI_SetLogicalChannel
                                                   MRFI_SetRFPwr
                                                   mrfiRadioInterfaceCmdStrobe
           LOCAL                   ADDRESS         
           =====                   =======         
           ?Subroutine8            E3B6 
    -------------------------------------------------------------------------
<CODE> 1 (was CODE)
  Relative segment, address: D720 - D741 (0x22 bytes), align: 1
  Segment part 51.            Intra module refs:   MRFI_Init
           ENTRY                   ADDRESS         REF BY
           =====                   =======         ======
           MRFI_SetLogicalChannel
                                   D720 
               calls direct
               CSTACK = 00000000 ( 00000006 )
    -------------------------------------------------------------------------
<CODE> 1 (was CODE)
  Relative segment, address: D6FE - D71F (0x22 bytes), align: 1
  Segment part 49.            Intra module refs:   MRFI_Init
           ENTRY                   ADDRESS         REF BY
           =====                   =======         ======
           MRFI_SetRFPwr           D6FE            nwk_radioControl (nwk_ioctl)
               calls direct
               CSTACK = 00000000 ( 00000004 )
    -------------------------------------------------------------------------
<CODE> 1 (was CODE)
  Relative segment, address: D4F2 - D519 (0x28 bytes), align: 1
  Segment part 48.
           ENTRY                   ADDRESS         REF BY
           =====                   =======         ======
           MRFI_SetRxAddrFilter    D4F2            SMPL_Init (nwk_api)
               calls direct
               CSTACK = 00000000 ( 00000004 )
    -------------------------------------------------------------------------
<CODE> 1 (was CODE)
  Relative segment, address: DC98 - DCAD (0x16 bytes), align: 1
  Segment part 47.
           ENTRY                   ADDRESS         REF BY
           =====                   =======         ======
           MRFI_EnableRxAddrFilter
                                   DC98            SMPL_Init (nwk_api)
               calls direct
               CSTACK = 00000000 ( 00000004 )
    -------------------------------------------------------------------------
<CODE> 1 (was CODE)
  Relative segment, address: CAD8 - CB15 (0x3e bytes), align: 1
  Segment part 45.            Intra module refs:   Mrfi_SyncPinRxIsr
           LOCAL                   ADDRESS         
           =====                   =======         
           Mrfi_RxAddrIsFiltered   CAD8 
               CSTACK = 00000000 ( 00000008 )
    -------------------------------------------------------------------------
<CODE> 1 (was CODE)
  Relative segment, address: D238 - D265 (0x2e bytes), align: 1
  Segment part 39.            Intra module refs:   ?Subroutine10
                                                   ?Subroutine11
                                                   MRFI_Init
                                                   MRFI_Rssi
                                                   Mrfi_SyncPinRxIsr
                                                   mrfiRadioInterfaceCmdStrobe
           ENTRY                   ADDRESS         REF BY
           =====                   =======         ======
           mrfiRadioInterfaceReadReg
                                   D238 
               CSTACK = 00000000 ( 00000004 )
    -------------------------------------------------------------------------
<CODE> 1 (was CODE)
  Relative segment, address: E2C2 - E2CD (0xc bytes), align: 1
  Segment part 40.            Intra module refs:   mrfiRadioInterfaceReadReg
                                                   mrfiRadioInterfaceWriteReg
           LOCAL                   ADDRESS         
           =====                   =======         
           ?Subroutine7            E2C2 
    -------------------------------------------------------------------------
<CODE> 1 (was CODE)
  Relative segment, address: DA24 - DA3F (0x1c bytes), align: 1
  Segment part 37.            Intra module refs:   MRFI_EnableRxAddrFilter
                                                   MRFI_Init
                                                   MRFI_SetLogicalChannel
                                                   MRFI_SetRFPwr
                                                   MRFI_SetRxAddrFilter
                                                   mrfiRadioInterfaceCmdStrobe
           ENTRY                   ADDRESS         REF BY
           =====                   =======         ======
           mrfiRadioInterfaceWriteReg
                                   DA24 
               CSTACK = 00000000 ( 00000004 )
    -------------------------------------------------------------------------
<CODE> 1 (was CODE)
  Relative segment, address: D8C8 - D8E5 (0x1e bytes), align: 1
  Segment part 36.            Intra module refs:   MRFI_Transmit
           ENTRY                   ADDRESS         REF BY
           =====                   =======         ======
           mrfiRadioInterfaceWriteTxFifo
                                   D8C8 
               CSTACK = 00000000 ( 00000004 )
    -------------------------------------------------------------------------
DATA16_I
  Relative segment, address: 1C58 - 1C58 (0x1 bytes), align: 0
  Segment part 32.            Intra module refs:   mrfiRadioInterfaceReadRxFifo
           ENTRY                   ADDRESS         REF BY
           =====                   =======         ======
           method                  1C58 
    -------------------------------------------------------------------------
<CODE> 1 (was CODE)
  Relative segment, address: C8C6 - C90D (0x48 bytes), align: 1
  Segment part 34.            Intra module refs:   Mrfi_SyncPinRxIsr
           ENTRY                   ADDRESS         REF BY
           =====                   =======         ======
           mrfiRadioInterfaceReadRxFifo
                                   C8C6 
               CSTACK = 00000000 ( 00000004 )
    -------------------------------------------------------------------------
DATA16_ID
  Relative segment, address: 84E4 - 84E7 (0x4 bytes), align: 0
  Segment part 28.            Intra module refs:   mrfiRxFilterAddr
    -------------------------------------------------------------------------
DATA16_ID
  Relative segment, address: 84E8 - 84E8 (0x1 bytes), align: 0
  Segment part 33.            Intra module refs:   method

    -------------------------------------------------------------------------
  LIBRARY MODULE, NAME : nwk

  SEGMENTS IN THE MODULE
  ======================
DATA16_I
  Relative segment, address: 1C59 - 1C75 (0x1d bytes), align: 0
  Segment part 2.             Intra module refs:   ?Subroutine1
                                                   initializeConnection
                                                   map_lid2idx
                                                   nwk_allocateLocalRxPort
                                                   nwk_findPeer
                                                   nwk_getConnInfo
                                                   nwk_getNextConnection
                                                   nwk_isConnectionValid
                                                   nwk_isLinkDuplicate
                                                   nwk_nwkInit
           LOCAL                   ADDRESS         
           =====                   =======         
           sPersistInfo            1C59 
    -------------------------------------------------------------------------
<CODE> 1 (was CODE)
  Relative segment, address: B826 - B8B7 (0x92 bytes), align: 1
  Segment part 23.
           ENTRY                   ADDRESS         REF BY
           =====                   =======         ======
           nwk_nwkInit             B826            SMPL_Init (nwk_api)
               calls direct
               CSTACK = 00000000 ( 00000008 )
    -------------------------------------------------------------------------
<CODE> 1 (was CODE)
  Relative segment, address: CD28 - CD5F (0x38 bytes), align: 1
  Segment part 22.
           ENTRY                   ADDRESS         REF BY
           =====                   =======         ======
           nwk_getNextConnection   CD28            nwk_link (nwk_link)
                                                   smpl_send_link_reply (nwk_link)
               calls direct
               CSTACK = 00000000 ( 00000006 )
    -------------------------------------------------------------------------
<CODE> 1 (was CODE)
  Relative segment, address: D0EC - D11B (0x30 bytes), align: 1
  Segment part 21.            Intra module refs:   nwk_getNextConnection
           LOCAL                   ADDRESS         
           =====                   =======         
           initializeConnection    D0EC 
               calls direct
               CSTACK = 00000000 ( 00000006 )
    -------------------------------------------------------------------------
<CODE> 1 (was CODE)
  Relative segment, address: E44E - E453 (0x6 bytes), align: 1
  Segment part 20.
           ENTRY                   ADDRESS         REF BY
           =====                   =======         ======
           nwk_freeConnection      E44E            nwk_connectionControl (nwk_ioctl)
                                                   nwk_link (nwk_link)
                                                   smpl_send_link_reply (nwk_link)
                                                   smpl_send_unlink_reply (nwk_link)
               CSTACK = 00000000 ( 00000004 )
    -------------------------------------------------------------------------
<CODE> 1 (was CODE)
  Relative segment, address: D51A - D541 (0x28 bytes), align: 1
  Segment part 19.
           ENTRY                   ADDRESS         REF BY
           =====                   =======         ======
           nwk_getConnInfo         D51A            SMPL_Receive (nwk_api)
                                                   SMPL_SendOpt (nwk_api)
                                                   nwk_QfindOldest (nwk_QMgmt)
                                                   nwk_connectionControl (nwk_ioctl)
                                                   nwk_radioControl (nwk_ioctl)
                                                   nwk_retrieveFrame (nwk_frame)
               calls direct
               CSTACK = 00000000 ( 00000006 )
    -------------------------------------------------------------------------
<CODE> 1 (was CODE)
  Relative segment, address: D64E - D671 (0x24 bytes), align: 1
  Segment part 15.
           ENTRY                   ADDRESS         REF BY
           =====                   =======         ======
           nwk_isLinkDuplicate     D64E            smpl_send_link_reply (nwk_link)
               calls direct
               CSTACK = 00000000 ( 00000006 )
    -------------------------------------------------------------------------
<CODE> 1 (was CODE)
  Relative segment, address: E06C - E06D (0x2 bytes), align: 1
  Segment part 16.            Intra module refs:   nwk_isLinkDuplicate
           LOCAL                   ADDRESS         
           =====                   =======         
           ?Subroutine0            E06C 
    -------------------------------------------------------------------------
<CODE> 1 (was CODE)
  Relative segment, address: E06E - E071 (0x4 bytes), align: 1
  Segment part 17.            Intra module refs:   ?Subroutine0
                                                   nwk_allocateLocalRxPort
           LOCAL                   ADDRESS         
           =====                   =======         
           ?Subroutine1            E06E 
    -------------------------------------------------------------------------
<CODE> 1 (was CODE)
  Relative segment, address: E072 - E079 (0x8 bytes), align: 1
  Segment part 18.            Intra module refs:   ?Subroutine1
                                                   nwk_findPeer
                                                   nwk_isConnectionValid
                                                   nwk_isValidReply
    -------------------------------------------------------------------------
<CODE> 1 (was CODE)
  Relative segment, address: D592 - D5B7 (0x26 bytes), align: 1
  Segment part 13.
           ENTRY                   ADDRESS         REF BY
           =====                   =======         ======
           nwk_checkConnInfo       D592            SMPL_Receive (nwk_api)
                                                   SMPL_SendOpt (nwk_api)
               CSTACK = 00000000 ( 00000004 )
    -------------------------------------------------------------------------
<CODE> 1 (was CODE)
  Relative segment, address: BA5A - BADD (0x84 bytes), align: 1
  Segment part 12.
           ENTRY                   ADDRESS         REF BY
           =====                   =======         ======
           nwk_isConnectionValid   BA5A            dispatchFrame (nwk_frame)
               calls direct
               CSTACK = 00000000 ( 00000010 )
    -------------------------------------------------------------------------
<CODE> 1 (was CODE)
  Relative segment, address: B0EE - B18F (0xa2 bytes), align: 1
  Segment part 11.
           ENTRY                   ADDRESS         REF BY
           =====                   =======         ======
           nwk_allocateLocalRxPort
                                   B0EE            nwk_link (nwk_link)
                                                   smpl_send_link_reply (nwk_link)
               calls direct
               CSTACK = 00000000 ( 0000000E )
    -------------------------------------------------------------------------
<CODE> 1 (was CODE)
  Relative segment, address: CCEE - CD27 (0x3a bytes), align: 1
  Segment part 10.
           ENTRY                   ADDRESS         REF BY
           =====                   =======         ======
           nwk_isValidReply        CCEE            nwk_processJoin (nwk_join)
                                                   nwk_processLink (nwk_link)
                                                   nwk_processMgmt (nwk_mgmt)
                                                   nwk_processPing (nwk_ping)
               calls direct
               CSTACK = 00000000 ( 00000008 )
    -------------------------------------------------------------------------
<CODE> 1 (was CODE)
  Relative segment, address: D4A2 - D4C9 (0x28 bytes), align: 1
  Segment part 9.             Intra module refs:   initializeConnection
                                                   nwk_getConnInfo
           LOCAL                   ADDRESS         
           =====                   =======         
           map_lid2idx             D4A2 
               CSTACK = 00000000 ( 00000004 )
    -------------------------------------------------------------------------
<CODE> 1 (was CODE)
  Relative segment, address: CC7A - CCB3 (0x3a bytes), align: 1
  Segment part 8.
           ENTRY                   ADDRESS         REF BY
           =====                   =======         ======
           nwk_findPeer            CC7A            smpl_send_unlink_reply (nwk_link)
               calls direct
               CSTACK = 00000000 ( 0000000C )
    -------------------------------------------------------------------------
<CODE> 1 (was CODE)
  Relative segment, address: D20A - D237 (0x2e bytes), align: 1
  Segment part 6.
           ENTRY                   ADDRESS         REF BY
           =====                   =======         ======
           nwk_getNumObjectFromMsg
                                   D20A            smpl_send_link_reply (nwk_link)
               calls direct
               CSTACK = 00000000 ( 00000008 )
    -------------------------------------------------------------------------
<CODE> 1 (was CODE)
  Relative segment, address: CE08 - CE3F (0x38 bytes), align: 1
  Segment part 5.
           ENTRY                   ADDRESS         REF BY
           =====                   =======         ======
           nwk_putNumObjectIntoMsg
                                   CE08            nwk_join (nwk_join)
                                                   nwk_link (nwk_link)
               calls direct
               CSTACK = 00000000 ( 0000000A )
    -------------------------------------------------------------------------
<CODE> 1 (was CODE)
  Relative segment, address: E4AA - E4AD (0x4 bytes), align: 1
  Segment part 4.
           ENTRY                   ADDRESS         REF BY
           =====                   =======         ======
           nwk_NVObj               E4AA            SMPL_Ioctl (nwk_api)
               CSTACK = 00000000 ( 00000004 )
    -------------------------------------------------------------------------
DATA16_ID
  Relative segment, address: 84E9 - 8505 (0x1d bytes), align: 0
  Segment part 3.             Intra module refs:   sPersistInfo

    -------------------------------------------------------------------------
  LIBRARY MODULE, NAME : nwk_api

  SEGMENTS IN THE MODULE
  ======================
DATA16_Z
  Relative segment, address: 1DBC - 1DBC (0x1 bytes), align: 0
  Segment part 2.             Intra module refs:   SMPL_Init
                                                   SMPL_Ioctl
           ENTRY                   ADDRESS         REF BY
           =====                   =======         ======
           sInit_done              1DBC            simpliciti_link (main_ED_BM)
                                                   simpliciti_main_sync (main_ED_BM)
                                                   simpliciti_main_tx_only (main_ED_BM)
    -------------------------------------------------------------------------
<CODE> 1 (was CODE)
  Relative segment, address: CE78 - CEAF (0x38 bytes), align: 1
  Segment part 15.
           ENTRY                   ADDRESS         REF BY
           =====                   =======         ======
           SMPL_Init               CE78            simpliciti_link (main_ED_BM)
               calls direct
               CSTACK = 00000000 ( 00000008 )
    -------------------------------------------------------------------------
<CODE> 1 (was CODE)
  Relative segment, address: E3C0 - E3C9 (0xa bytes), align: 1
  Segment part 13.            Intra module refs:   SMPL_SendOpt
           LOCAL                   ADDRESS         
           =====                   =======         
           ?Subroutine1            E3C0 
    -------------------------------------------------------------------------
<CODE> 1 (was CODE)
  Relative segment, address: E38E - E397 (0xa bytes), align: 1
  Segment part 14.            Intra module refs:   SMPL_SendOpt
           LOCAL                   ADDRESS         
           =====                   =======         
           ?Subroutine0            E38E 
    -------------------------------------------------------------------------
<CODE> 1 (was CODE)
  Relative segment, address: AA42 - AB11 (0xd0 bytes), align: 1
  Segment part 9.
           ENTRY                   ADDRESS         REF BY
           =====                   =======         ======
           SMPL_SendOpt            AA42            Segment part 6 (main_ED_BM)
               calls direct
               CSTACK = 00000000 ( 00000016 )
    -------------------------------------------------------------------------
<CODE> 1 (was CODE)
  Relative segment, address: E096 - E0A3 (0xe bytes), align: 1
  Segment part 10.            Intra module refs:   SMPL_SendOpt
           LOCAL                   ADDRESS         
           =====                   =======         
           ?Subroutine2            E096 
    -------------------------------------------------------------------------
<CODE> 1 (was CODE)
  Relative segment, address: C956 - C997 (0x42 bytes), align: 1
  Segment part 8.
           ENTRY                   ADDRESS         REF BY
           =====                   =======         ======
           SMPL_Receive            C956            simpliciti_main_sync (main_ED_BM)
               calls direct
               CSTACK = 00000000 ( 00000012 )
    -------------------------------------------------------------------------
<CODE> 1 (was CODE)
  Relative segment, address: E49E - E4A1 (0x4 bytes), align: 1
  Segment part 7.
           ENTRY                   ADDRESS         REF BY
           =====                   =======         ======
           SMPL_Link               E49E            simpliciti_link (main_ED_BM)
               calls direct
               CSTACK = 00000000 ( 00000004 )
    -------------------------------------------------------------------------
<CODE> 1 (was CODE)
  Relative segment, address: A31A - A40D (0xf4 bytes), align: 1
  Segment part 3.
           ENTRY                   ADDRESS         REF BY
           =====                   =======         ======
           SMPL_Ioctl              A31A            Segment part 20 (nwk_link)
                                                   Segment part 8 (main_ED_BM)
                                                   nwk_join (nwk_join)
                                                   simpliciti_link (main_ED_BM)
               calls direct
               CSTACK = 00000000 ( 00000008 )

    -------------------------------------------------------------------------
  LIBRARY MODULE, NAME : nwk_frame

  SEGMENTS IN THE MODULE
  ======================
DATA16_C
  Relative segment, address: 801C - 8033 (0x18 bytes), align: 1
  Segment part 2.             Intra module refs:   dispatchFrame
           LOCAL                   ADDRESS         
           =====                   =======         
           func                    801C 
    -------------------------------------------------------------------------
DATA16_Z
  Relative segment, address: 1DBD - 1DBD (0x1 bytes), align: 0
  Segment part 3.             Intra module refs:   nwk_buildFrame
                                                   nwk_frameInit
           LOCAL                   ADDRESS         
           =====                   =======         
           sTRACTID                1DBD 
    -------------------------------------------------------------------------
DATA16_Z
  Relative segment, address: 1CD8 - 1CD9 (0x2 bytes), align: 1
  Segment part 4.             Intra module refs:   dispatchFrame
                                                   nwk_buildFrame
                                                   nwk_frameInit
                                                   nwk_sendAckReply
           LOCAL                   ADDRESS         
           =====                   =======         
           sMyAddr                 1CD8 
    -------------------------------------------------------------------------
DATA16_Z
  Relative segment, address: 1DBE - 1DBE (0x1 bytes), align: 0
  Segment part 5.             Intra module refs:   nwk_buildFrame
                                                   nwk_getMyRxType
                                                   nwk_sendAckReply
           LOCAL                   ADDRESS         
           =====                   =======         
           sMyRxType               1DBE 
    -------------------------------------------------------------------------
DATA16_Z
  Relative segment, address: 1DBF - 1DBF (0x1 bytes), align: 0
  Segment part 6.             Intra module refs:   nwk_frameInit
                                                   nwk_sendAckReply
                                                   nwk_sendFrame
           LOCAL                   ADDRESS         
           =====                   =======         
           sMyTxType               1DBF 
    -------------------------------------------------------------------------
DATA16_Z
  Relative segment, address: 1CDA - 1CDD (0x4 bytes), align: 1
  Segment part 7.             Intra module refs:   dispatchFrame
                                                   nwk_frameInit
           LOCAL                   ADDRESS         
           =====                   =======         
           spCallback              1CDA 
    -------------------------------------------------------------------------
<CODE> 1 (was CODE)
  Relative segment, address: D6DC - D6FD (0x22 bytes), align: 1
  Segment part 16.
           ENTRY                   ADDRESS         REF BY
           =====                   =======         ======
           nwk_frameInit           D6DC            nwk_nwkInit (nwk)
               calls direct
               CSTACK = 00000000 ( 00000004 )
    -------------------------------------------------------------------------
<CODE> 1 (was CODE)
  Relative segment, address: BB60 - BBDF (0x80 bytes), align: 1
  Segment part 15.            Intra module refs:   nwk_buildAckReqFrame
           ENTRY                   ADDRESS         REF BY
           =====                   =======         ======
           nwk_buildFrame          BB60            ?Subroutine0 (nwk_link)
                                                   SMPL_SendOpt (nwk_api)
                                                   nwk_rawSend (nwk_ioctl)
                                                   smpl_send_ping_reply (nwk_ping)
                                                   smpl_send_unlink_reply (nwk_link)
               calls direct
               CSTACK = 00000000 ( 00000010 )
    -------------------------------------------------------------------------
<CODE> 1 (was CODE)
  Relative segment, address: D940 - D95D (0x1e bytes), align: 1
  Segment part 14.
           ENTRY                   ADDRESS         REF BY
           =====                   =======         ======
           nwk_buildAckReqFrame    D940            SMPL_SendOpt (nwk_api)
               calls direct
               CSTACK = 00000000 ( 00000004 )
    -------------------------------------------------------------------------
<CODE> 1 (was CODE)
  Relative segment, address: D8AA - D8C7 (0x1e bytes), align: 1
  Segment part 13.
           ENTRY                   ADDRESS         REF BY
           =====                   =======         ======
           MRFI_RxCompleteISR      D8AA            Mrfi_SyncPinRxIsr (mrfi)
               calls direct
               CSTACK = 00000000 ( 00000006 )
    -------------------------------------------------------------------------
<CODE> 1 (was CODE)
  Relative segment, address: B232 - B2CF (0x9e bytes), align: 1
  Segment part 12.
           ENTRY                   ADDRESS         REF BY
           =====                   =======         ======
           nwk_retrieveFrame       B232            SMPL_Receive (nwk_api)
                                                   nwk_rawReceive (nwk_ioctl)
               calls direct
               CSTACK = 00000000 ( 00000010 )
    -------------------------------------------------------------------------
<CODE> 1 (was CODE)
  Relative segment, address: B5D2 - B669 (0x98 bytes), align: 1
  Segment part 11.            Intra module refs:   MRFI_RxCompleteISR
           LOCAL                   ADDRESS         
           =====                   =======         
           dispatchFrame           B5D2 
               calls direct and indirect
               CSTACK = 00000000 ( 0000000A )
    -------------------------------------------------------------------------
<CODE> 1 (was CODE)
  Relative segment, address: D266 - D293 (0x2e bytes), align: 1
  Segment part 10.
           ENTRY                   ADDRESS         REF BY
           =====                   =======         ======
           nwk_sendFrame           D266            ?Subroutine3 (nwk_link)
                                                   SMPL_SendOpt (nwk_api)
                                                   nwk_rawSend (nwk_ioctl)
                                                   smpl_send_link_reply (nwk_link)
                                                   smpl_send_ping_reply (nwk_ping)
               calls direct
               CSTACK = 00000000 ( 00000006 )
    -------------------------------------------------------------------------
<CODE> 1 (was CODE)
  Relative segment, address: E442 - E447 (0x6 bytes), align: 1
  Segment part 9.
           ENTRY                   ADDRESS         REF BY
           =====                   =======         ======
           nwk_getMyRxType         E442            nwk_link (nwk_link)
                                                   smpl_send_link_reply (nwk_link)
               CSTACK = 00000000 ( 00000004 )
    -------------------------------------------------------------------------
<CODE> 1 (was CODE)
  Relative segment, address: BADE - BB5F (0x82 bytes), align: 1
  Segment part 8.
           ENTRY                   ADDRESS         REF BY
           =====                   =======         ======
           nwk_sendAckReply        BADE            nwk_isConnectionValid (nwk)
               calls direct
               CSTACK = 00000000 ( 0000002E )

    -------------------------------------------------------------------------
  LIBRARY MODULE, NAME : nwk_freq

  SEGMENTS IN THE MODULE
  ======================
<CODE> 1 (was CODE)
  Relative segment, address: E4BA - E4BB (0x2 bytes), align: 1
  Segment part 3.
           ENTRY                   ADDRESS         REF BY
           =====                   =======         ======
           nwk_freqInit            E4BA            nwk_nwkInit (nwk)
               CSTACK = 00000000 ( 00000004 )
    -------------------------------------------------------------------------
<CODE> 1 (was CODE)
  Relative segment, address: E496 - E499 (0x4 bytes), align: 1
  Segment part 2.
           ENTRY                   ADDRESS         REF BY
           =====                   =======         ======
           nwk_processFreq         E496            func (nwk_frame)
               CSTACK = 00000000 ( 00000004 )

    -------------------------------------------------------------------------
  LIBRARY MODULE, NAME : nwk_globals

  SEGMENTS IN THE MODULE
  ======================
DATA16_C
  Relative segment, address: 81A0 - 81A3 (0x4 bytes), align: 0
  Segment part 2.             Intra module refs:   nwk_getMyAddress
                                                   nwk_globalsInit
           LOCAL                   ADDRESS         
           =====                   =======         
           sMyROMAddress           81A0 
    -------------------------------------------------------------------------
DATA16_Z
  Relative segment, address: 1DC0 - 1DC3 (0x4 bytes), align: 0
  Segment part 3.             Intra module refs:   nwk_globalsInit
                                                   nwk_setAPAddress
           LOCAL                   ADDRESS         
           =====                   =======         
           sAPAddress              1DC0 
    -------------------------------------------------------------------------
DATA16_Z
  Relative segment, address: 1DC4 - 1DC7 (0x4 bytes), align: 0
  Segment part 4.             Intra module refs:   ?Subroutine0
                                                   nwk_getMyAddress
           LOCAL                   ADDRESS         
           =====                   =======         
           sMyRAMAddress           1DC4 
    -------------------------------------------------------------------------
DATA16_Z
  Relative segment, address: 1DC8 - 1DC8 (0x1 bytes), align: 0
  Segment part 5.             Intra module refs:   ?Subroutine0
                                                   nwk_getMyAddress
                                                   nwk_globalsInit
                                                   nwk_setMyAddress
           LOCAL                   ADDRESS         
           =====                   =======         
           sRAMAddressIsSet        1DC8 
    -------------------------------------------------------------------------
DATA16_C
  Relative segment, address: 81A4 - 81A8 (0x5 bytes), align: 0
  Segment part 6.             Intra module refs:   nwk_getFWVersion
           LOCAL                   ADDRESS         
           =====                   =======         
           sVersionInfo            81A4 
    -------------------------------------------------------------------------
<CODE> 1 (was CODE)
  Relative segment, address: D95E - D97B (0x1e bytes), align: 1
  Segment part 14.
           ENTRY                   ADDRESS         REF BY
           =====                   =======         ======
           nwk_globalsInit         D95E            nwk_nwkInit (nwk)
               calls direct
               CSTACK = 00000000 ( 00000004 )
    -------------------------------------------------------------------------
<CODE> 1 (was CODE)
  Relative segment, address: E0CE - E0DB (0xe bytes), align: 1
  Segment part 15.            Intra module refs:   nwk_globalsInit
                                                   nwk_setMyAddress
           LOCAL                   ADDRESS         
           =====                   =======         
           ?Subroutine0            E0CE 
    -------------------------------------------------------------------------
<CODE> 1 (was CODE)
  Relative segment, address: DE64 - DE75 (0x12 bytes), align: 1
  Segment part 13.
           ENTRY                   ADDRESS         REF BY
           =====                   =======         ======
           nwk_getMyAddress        DE64            SMPL_Init (nwk_api)
                                                   nwk_deviceAddress (nwk_ioctl)
                                                   nwk_frameInit (nwk_frame)
                                                   nwk_isValidReply (nwk)
                                                   nwk_processMgmt (nwk_mgmt)
               CSTACK = 00000000 ( 00000004 )
    -------------------------------------------------------------------------
<CODE> 1 (was CODE)
  Relative segment, address: E43C - E441 (0x6 bytes), align: 1
  Segment part 12.
           ENTRY                   ADDRESS         REF BY
           =====                   =======         ======
           nwk_getFWVersion        E43C            SMPL_Ioctl (nwk_api)
               CSTACK = 00000000 ( 00000004 )
    -------------------------------------------------------------------------
<CODE> 1 (was CODE)
  Relative segment, address: E492 - E495 (0x4 bytes), align: 1
  Segment part 11.
           ENTRY                   ADDRESS         REF BY
           =====                   =======         ======
           nwk_getProtocolVersion
                                   E492            SMPL_Ioctl (nwk_api)
                                                   nwk_join (nwk_join)
                                                   nwk_link (nwk_link)
                                                   smpl_send_link_reply (nwk_link)
               CSTACK = 00000000 ( 00000004 )
    -------------------------------------------------------------------------
<CODE> 1 (was CODE)
  Relative segment, address: DCAE - DCC3 (0x16 bytes), align: 1
  Segment part 10.
           ENTRY                   ADDRESS         REF BY
           =====                   =======         ======
           nwk_setMyAddress        DCAE            nwk_deviceAddress (nwk_ioctl)
               calls direct
               CSTACK = 00000000 ( 00000004 )
    -------------------------------------------------------------------------
<CODE> 1 (was CODE)
  Relative segment, address: E23E - E249 (0xc bytes), align: 1
  Segment part 9.
           ENTRY                   ADDRESS         REF BY
           =====                   =======         ======
           nwk_setAPAddress        E23E            nwk_join (nwk_join)
               calls direct
               CSTACK = 00000000 ( 00000004 )
    -------------------------------------------------------------------------
<CODE> 1 (was CODE)
  Relative segment, address: E460 - E465 (0x6 bytes), align: 1
  Segment part 7.
           ENTRY                   ADDRESS         REF BY
           =====                   =======         ======
           nwk_getBCastAddress     E460            nwk_join (nwk_join)
                                                   nwk_link (nwk_link)
                                                   nwk_nwkInit (nwk)
               CSTACK = 00000000 ( 00000004 )

    -------------------------------------------------------------------------
  LIBRARY MODULE, NAME : nwk_ioctl

  SEGMENTS IN THE MODULE
  ======================
<CODE> 1 (was CODE)
  Relative segment, address: C4EA - C539 (0x50 bytes), align: 1
  Segment part 6.
           ENTRY                   ADDRESS         REF BY
           =====                   =======         ======
           nwk_rawSend             C4EA            SMPL_Ioctl (nwk_api)
               calls direct
               CSTACK = 00000000 ( 00000008 )
    -------------------------------------------------------------------------
<CODE> 1 (was CODE)
  Relative segment, address: D3A2 - D3CD (0x2c bytes), align: 1
  Segment part 5.
           ENTRY                   ADDRESS         REF BY
           =====                   =======         ======
           nwk_rawReceive          D3A2            SMPL_Ioctl (nwk_api)
               calls direct
               CSTACK = 00000000 ( 0000000A )
    -------------------------------------------------------------------------
<CODE> 1 (was CODE)
  Relative segment, address: B408 - B4A1 (0x9a bytes), align: 1
  Segment part 4.
           ENTRY                   ADDRESS         REF BY
           =====                   =======         ======
           nwk_radioControl        B408            SMPL_Ioctl (nwk_api)
               calls direct
               CSTACK = 00000000 ( 00000008 )
    -------------------------------------------------------------------------
<CODE> 1 (was CODE)
  Relative segment, address: D14C - D17B (0x30 bytes), align: 1
  Segment part 3.
           ENTRY                   ADDRESS         REF BY
           =====                   =======         ======
           nwk_deviceAddress       D14C            SMPL_Ioctl (nwk_api)
               calls direct
               CSTACK = 00000000 ( 00000008 )
    -------------------------------------------------------------------------
<CODE> 1 (was CODE)
  Relative segment, address: D7CA - D7EB (0x22 bytes), align: 1
  Segment part 2.
           ENTRY                   ADDRESS         REF BY
           =====                   =======         ======
           nwk_connectionControl   D7CA            SMPL_Ioctl (nwk_api)
               calls direct
               CSTACK = 00000000 ( 00000004 )

    -------------------------------------------------------------------------
  LIBRARY MODULE, NAME : nwk_join

  SEGMENTS IN THE MODULE
  ======================
DATA16_Z
  Relative segment, address: 1CDE - 1CE1 (0x4 bytes), align: 1
  Segment part 2.             Intra module refs:   nwk_getJoinToken
                                                   nwk_join
                                                   nwk_joinInit
                                                   nwk_setJoinToken
           LOCAL                   ADDRESS         
           =====                   =======         
           sJoinToken              1CDE 
    -------------------------------------------------------------------------
DATA16_Z
  Relative segment, address: 1CE2 - 1CE5 (0x4 bytes), align: 1
  Segment part 3.             Intra module refs:   nwk_joinInit
           LOCAL                   ADDRESS         
           =====                   =======         
           spCallback              1CE2 
    -------------------------------------------------------------------------
DATA16_Z
  Relative segment, address: 1DC9 - 1DC9 (0x1 bytes), align: 0
  Segment part 4.             Intra module refs:   nwk_join
                                                   nwk_joinInit
                                                   nwk_processJoin
           LOCAL                   ADDRESS         
           =====                   =======         
           sTid                    1DC9 
    -------------------------------------------------------------------------
<CODE> 1 (was CODE)
  Relative segment, address: D3FA - D423 (0x2a bytes), align: 1
  Segment part 9.
           ENTRY                   ADDRESS         REF BY
           =====                   =======         ======
           nwk_joinInit            D3FA            nwk_nwkInit (nwk)
               calls direct
               CSTACK = 00000000 ( 00000004 )
    -------------------------------------------------------------------------
<CODE> 1 (was CODE)
  Relative segment, address: DD7A - DD8B (0x12 bytes), align: 1
  Segment part 8.
           ENTRY                   ADDRESS         REF BY
           =====                   =======         ======
           nwk_setJoinToken        DD7A            SMPL_Ioctl (nwk_api)
               CSTACK = 00000000 ( 00000004 )
    -------------------------------------------------------------------------
<CODE> 1 (was CODE)
  Relative segment, address: DF06 - DF17 (0x12 bytes), align: 1
  Segment part 7.
           ENTRY                   ADDRESS         REF BY
           =====                   =======         ======
           nwk_getJoinToken        DF06            SMPL_Ioctl (nwk_api)
               CSTACK = 00000000 ( 00000004 )
    -------------------------------------------------------------------------
<CODE> 1 (was CODE)
  Relative segment, address: A4FE - A5E7 (0xea bytes), align: 1
  Segment part 6.
           ENTRY                   ADDRESS         REF BY
           =====                   =======         ======
           nwk_join                A4FE            SMPL_Init (nwk_api)
               calls direct
               CSTACK = 00000000 ( 00000024 )
    -------------------------------------------------------------------------
<CODE> 1 (was CODE)
  Relative segment, address: D80C - D82B (0x20 bytes), align: 1
  Segment part 5.
           ENTRY                   ADDRESS         REF BY
           =====                   =======         ======
           nwk_processJoin         D80C            func (nwk_frame)
               calls direct
               CSTACK = 00000000 ( 00000006 )

    -------------------------------------------------------------------------
  LIBRARY MODULE, NAME : nwk_link

  SEGMENTS IN THE MODULE
  ======================
DATA16_Z
  Relative segment, address: 1CE6 - 1CE9 (0x4 bytes), align: 1
  Segment part 2.             Intra module refs:   nwk_getLinkToken
                                                   nwk_link
                                                   nwk_linkInit
                                                   nwk_setLinkToken
                                                   smpl_send_link_reply
           LOCAL                   ADDRESS         
           =====                   =======         
           sLinkToken              1CE6 
    -------------------------------------------------------------------------
DATA16_Z
  Relative segment, address: 1DCA - 1DCA (0x1 bytes), align: 0
  Segment part 3.             Intra module refs:   smpl_send_link_reply
           LOCAL                   ADDRESS         
           =====                   =======         
           sListenActive           1DCA 
    -------------------------------------------------------------------------
DATA16_Z
  Relative segment, address: 1DCB - 1DCB (0x1 bytes), align: 0
  Segment part 4.             Intra module refs:   nwk_linkInit
                                                   smpl_send_link_reply
           LOCAL                   ADDRESS         
           =====                   =======         
           sServiceLinkID          1DCB 
    -------------------------------------------------------------------------
DATA16_Z
  Relative segment, address: 1DCC - 1DCC (0x1 bytes), align: 0
  Segment part 5.             Intra module refs:   smpl_send_link_reply
           LOCAL                   ADDRESS         
           =====                   =======         
           sNumLinkers             1DCC 
    -------------------------------------------------------------------------
DATA16_Z
  Relative segment, address: 1DCD - 1DCD (0x1 bytes), align: 0
  Segment part 6.             Intra module refs:   nwk_link
                                                   nwk_linkInit
                                                   nwk_processLink
           LOCAL                   ADDRESS         
           =====                   =======         
           sTid                    1DCD 
    -------------------------------------------------------------------------
<CODE> 1 (was CODE)
  Relative segment, address: D11C - D14B (0x30 bytes), align: 1
  Segment part 25.
           ENTRY                   ADDRESS         REF BY
           =====                   =======         ======
           nwk_linkInit            D11C            nwk_nwkInit (nwk)
               calls direct
               CSTACK = 00000000 ( 00000004 )
    -------------------------------------------------------------------------
<CODE> 1 (was CODE)
  Relative segment, address: DD9E - DDAF (0x12 bytes), align: 1
  Segment part 24.
           ENTRY                   ADDRESS         REF BY
           =====                   =======         ======
           nwk_setLinkToken        DD9E            SMPL_Ioctl (nwk_api)
                                                   nwk_join (nwk_join)
               CSTACK = 00000000 ( 00000004 )
    -------------------------------------------------------------------------
<CODE> 1 (was CODE)
  Relative segment, address: DDB0 - DDC1 (0x12 bytes), align: 1
  Segment part 23.
           ENTRY                   ADDRESS         REF BY
           =====                   =======         ======
           nwk_getLinkToken        DDB0            SMPL_Ioctl (nwk_api)
               CSTACK = 00000000 ( 00000004 )
    -------------------------------------------------------------------------
<CODE> 1 (was CODE)
  Relative segment, address: E286 - E287 (0x2 bytes), align: 1
  Segment part 19.            Intra module refs:   nwk_link
           LOCAL                   ADDRESS         
           =====                   =======         
           ?Subroutine6            E286 
    -------------------------------------------------------------------------
<CODE> 1 (was CODE)
  Relative segment, address: E288 - E291 (0xa bytes), align: 1
  Segment part 20.            Intra module refs:   ?Subroutine6
                                                   nwk_link
    -------------------------------------------------------------------------
<CODE> 1 (was CODE)
  Relative segment, address: E35C - E365 (0xa bytes), align: 1
  Segment part 21.            Intra module refs:   nwk_link
           LOCAL                   ADDRESS         
           =====                   =======         
           ?Subroutine2            E35C 
    -------------------------------------------------------------------------
<CODE> 1 (was CODE)
  Relative segment, address: E320 - E329 (0xa bytes), align: 1
  Segment part 22.            Intra module refs:   nwk_link
           LOCAL                   ADDRESS         
           =====                   =======         
           ?Subroutine1            E320 
    -------------------------------------------------------------------------
<CODE> 1 (was CODE)
  Relative segment, address: 9D8C - 9EB9 (0x12e bytes), align: 1
  Segment part 17.
           ENTRY                   ADDRESS         REF BY
           =====                   =======         ======
           nwk_link                9D8C            SMPL_Link (nwk_api)
               calls direct
               CSTACK = 00000000 ( 00000026 )
    -------------------------------------------------------------------------
<CODE> 1 (was CODE)
  Relative segment, address: E29E - E29F (0x2 bytes), align: 1
  Segment part 12.            Intra module refs:   smpl_send_link_reply
           LOCAL                   ADDRESS         
           =====                   =======         
           ?Subroutine4            E29E 
    -------------------------------------------------------------------------
<CODE> 1 (was CODE)
  Relative segment, address: E2A0 - E2A9 (0xa bytes), align: 1
  Segment part 13.            Intra module refs:   ?Subroutine3
                                                   ?Subroutine4
           LOCAL                   ADDRESS         
           =====                   =======         
           ?Subroutine7            E2A0 
    -------------------------------------------------------------------------
<CODE> 1 (was CODE)
  Relative segment, address: C34E - C3A1 (0x54 bytes), align: 1
  Segment part 15.            Intra module refs:   nwk_processLink
           LOCAL                   ADDRESS         
           =====                   =======         
           smpl_send_unlink_reply
                                   C34E 
               calls direct
               CSTACK = 00000000 ( 0000000C )
    -------------------------------------------------------------------------
<CODE> 1 (was CODE)
  Relative segment, address: E2B6 - E2C1 (0xc bytes), align: 1
  Segment part 16.            Intra module refs:   smpl_send_link_reply
                                                   smpl_send_unlink_reply
           LOCAL                   ADDRESS         
           =====                   =======         
           ?Subroutine3            E2B6 
    -------------------------------------------------------------------------
<CODE> 1 (was CODE)
  Relative segment, address: A212 - A319 (0x108 bytes), align: 1
  Segment part 10.            Intra module refs:   nwk_processLink
           LOCAL                   ADDRESS         
           =====                   =======         
           smpl_send_link_reply    A212 
               calls direct
               CSTACK = 00000000 ( 00000014 )
    -------------------------------------------------------------------------
<CODE> 1 (was CODE)
  Relative segment, address: E130 - E13D (0xe bytes), align: 1
  Segment part 11.            Intra module refs:   smpl_send_link_reply
           LOCAL                   ADDRESS         
           =====                   =======         
           ?Subroutine5            E130 
    -------------------------------------------------------------------------
<CODE> 1 (was CODE)
  Relative segment, address: DB36 - DB4F (0x1a bytes), align: 1
  Segment part 14.            Intra module refs:   smpl_send_link_reply
           LOCAL                   ADDRESS         
           =====                   =======         
           ?Subroutine0            DB36 
    -------------------------------------------------------------------------
<CODE> 1 (was CODE)
  Relative segment, address: C754 - C79F (0x4c bytes), align: 1
  Segment part 9.
           ENTRY                   ADDRESS         REF BY
           =====                   =======         ======
           nwk_processLink         C754            func (nwk_frame)
               calls direct
               CSTACK = 00000000 ( 00000006 )

    -------------------------------------------------------------------------
  LIBRARY MODULE, NAME : nwk_mgmt

  SEGMENTS IN THE MODULE
  ======================
DATA16_Z
  Relative segment, address: 1DCE - 1DCE (0x1 bytes), align: 0
  Segment part 3.             Intra module refs:   nwk_mgmtInit
                                                   nwk_processMgmt
           LOCAL                   ADDRESS         
           =====                   =======         
           sTid                    1DCE 
    -------------------------------------------------------------------------
<CODE> 1 (was CODE)
  Relative segment, address: E2F8 - E301 (0xa bytes), align: 1
  Segment part 6.
           ENTRY                   ADDRESS         REF BY
           =====                   =======         ======
           nwk_mgmtInit            E2F8            nwk_nwkInit (nwk)
               calls direct
               CSTACK = 00000000 ( 00000004 )
    -------------------------------------------------------------------------
<CODE> 1 (was CODE)
  Relative segment, address: CCB4 - CCED (0x3a bytes), align: 1
  Segment part 5.
           ENTRY                   ADDRESS         REF BY
           =====                   =======         ======
           nwk_processMgmt         CCB4            func (nwk_frame)
               calls direct
               CSTACK = 00000000 ( 00000006 )

    -------------------------------------------------------------------------
  LIBRARY MODULE, NAME : nwk_ping

  SEGMENTS IN THE MODULE
  ======================
DATA16_Z
  Relative segment, address: 1DCF - 1DCF (0x1 bytes), align: 0
  Segment part 2.             Intra module refs:   nwk_pingInit
                                                   nwk_processPing
           LOCAL                   ADDRESS         
           =====                   =======         
           sTid                    1DCF 
    -------------------------------------------------------------------------
<CODE> 1 (was CODE)
  Relative segment, address: E2EE - E2F7 (0xa bytes), align: 1
  Segment part 6.
           ENTRY                   ADDRESS         REF BY
           =====                   =======         ======
           nwk_pingInit            E2EE            nwk_nwkInit (nwk)
               calls direct
               CSTACK = 00000000 ( 00000004 )
    -------------------------------------------------------------------------
<CODE> 1 (was CODE)
  Relative segment, address: C998 - C9D9 (0x42 bytes), align: 1
  Segment part 4.             Intra module refs:   nwk_processPing
           LOCAL                   ADDRESS         
           =====                   =======         
           smpl_send_ping_reply    C998 
               calls direct
               CSTACK = 00000000 ( 00000008 )
    -------------------------------------------------------------------------
<CODE> 1 (was CODE)
  Relative segment, address: D1DC - D209 (0x2e bytes), align: 1
  Segment part 3.
           ENTRY                   ADDRESS         REF BY
           =====                   =======         ======
           nwk_processPing         D1DC            func (nwk_frame)
               calls direct
               CSTACK = 00000000 ( 00000006 )

    -------------------------------------------------------------------------
  LIBRARY MODULE, NAME : nwk_QMgmt

  SEGMENTS IN THE MODULE
  ======================
DATA16_Z
  Relative segment, address: 1DD0 - 1E15 (0x46 bytes), align: 0
  Segment part 2.             Intra module refs:   nwk_QInit
                                                   nwk_QadjustOrder
                                                   nwk_QfindOldest
                                                   nwk_QfindSlot
           LOCAL                   ADDRESS         
           =====                   =======         
           sInFrameQ               1DD0 
    -------------------------------------------------------------------------
DATA16_Z
  Relative segment, address: 1E16 - 1E5B (0x46 bytes), align: 0
  Segment part 3.             Intra module refs:   nwk_QInit
                                                   nwk_QfindSlot
           LOCAL                   ADDRESS         
           =====                   =======         
           sOutFrameQ              1E16 
    -------------------------------------------------------------------------
<CODE> 1 (was CODE)
  Relative segment, address: DA78 - DA93 (0x1c bytes), align: 1
  Segment part 8.
           ENTRY                   ADDRESS         REF BY
           =====                   =======         ======
           nwk_QInit               DA78            nwk_nwkInit (nwk)
               calls direct
               CSTACK = 00000000 ( 00000004 )
    -------------------------------------------------------------------------
<CODE> 1 (was CODE)
  Relative segment, address: BBE0 - BC57 (0x78 bytes), align: 1
  Segment part 7.
           ENTRY                   ADDRESS         REF BY
           =====                   =======         ======
           nwk_QfindSlot           BBE0            MRFI_RxCompleteISR (nwk_frame)
                                                   nwk_buildFrame (nwk_frame)
               calls direct
               CSTACK = 00000000 ( 0000000C )
    -------------------------------------------------------------------------
<CODE> 1 (was CODE)
  Relative segment, address: D3CE - D3F9 (0x2c bytes), align: 1
  Segment part 6.             Intra module refs:   nwk_QfindSlot
           ENTRY                   ADDRESS         REF BY
           =====                   =======         ======
           nwk_QadjustOrder        D3CE            nwk_retrieveFrame (nwk_frame)
               CSTACK = 00000000 ( 00000004 )
    -------------------------------------------------------------------------
<CODE> 1 (was CODE)
  Relative segment, address: A89A - A96F (0xd6 bytes), align: 1
  Segment part 5.
           ENTRY                   ADDRESS         REF BY
           =====                   =======         ======
           nwk_QfindOldest         A89A            nwk_retrieveFrame (nwk_frame)
               calls direct
               CSTACK = 00000000 ( 00000018 )

    -------------------------------------------------------------------------
  LIBRARY MODULE, NAME : nwk_security

  SEGMENTS IN THE MODULE
  ======================
<CODE> 1 (was CODE)
  Relative segment, address: E4C8 - E4C9 (0x2 bytes), align: 1
  Segment part 3.
           ENTRY                   ADDRESS         REF BY
           =====                   =======         ======
           nwk_securityInit        E4C8            nwk_nwkInit (nwk)
               CSTACK = 00000000 ( 00000004 )
    -------------------------------------------------------------------------
<CODE> 1 (was CODE)
  Relative segment, address: E4AE - E4B1 (0x4 bytes), align: 1
  Segment part 2.
           ENTRY                   ADDRESS         REF BY
           =====                   =======         ======
           nwk_processSecurity     E4AE            func (nwk_frame)
               CSTACK = 00000000 ( 00000004 )

    *************************************************************************

  FILE NAME : D:\ALaurent\Temp\git\EZ430-MyChronos\Sports Watch\915MHz - Limited IAR KickStart (USA)\Obj\clock.r43
  PROGRAM MODULE, NAME : clock

  SEGMENTS IN THE MODULE
  ======================
DATA16_Z
  Relative segment, address: 1CEA - 1CF7 (0xe bytes), align: 1
  Segment part 2.             Intra module refs:   clock_tick
                                                   display_time
                                                   mx_time
                                                   reset_clock
                                                   sx_time
           ENTRY                   ADDRESS         REF BY
           =====                   =======         ======
           sTime                   1CEA            PORT2_ISR (ports)
                                                   TIMER0_A0_ISR (timer)
                                                   button_repeat_function (ports)
                                                   check_alarm (alarm)
                                                   simpliciti_sync_decode_ap_cmd_callback (rfsimpliciti)
                                                   simpliciti_sync_get_data_callback (rfsimpliciti)
    -------------------------------------------------------------------------
DATA16_C
  Relative segment, address: 81A9 - 81B0 (0x8 bytes), align: 0
  Segment part 3.             Intra module refs:   display_selection_Timeformat1
           ENTRY                   ADDRESS         REF BY
           =====                   =======         ======
           selection_Timeformat    81A9 
    -------------------------------------------------------------------------
<CODE> 1 (was CODE)
  Relative segment, address: D696 - D6B9 (0x24 bytes), align: 1
  Segment part 18.
           ENTRY                   ADDRESS         REF BY
           =====                   =======         ======
           reset_clock             D696            init_global_variables (main)
               CSTACK = 00000000 ( 00000004 )
    -------------------------------------------------------------------------
<CODE> 1 (was CODE)
  Relative segment, address: C670 - C6BB (0x4c bytes), align: 1
  Segment part 17.
           ENTRY                   ADDRESS         REF BY
           =====                   =======         ======
           clock_tick              C670            TIMER0_A0_ISR (timer)
               calls direct
               CSTACK = 00000000 ( 00000004 )
    -------------------------------------------------------------------------
<CODE> 1 (was CODE)
  Relative segment, address: DC56 - DC6B (0x16 bytes), align: 1
  Segment part 16.            Intra module refs:   ?Subroutine1
           ENTRY                   ADDRESS         REF BY
           =====                   =======         ======
           convert_hour_to_12H_format
                                   DC56            display_alarm (alarm)
                                                   display_hours (display)
               CSTACK = 00000000 ( 00000004 )
    -------------------------------------------------------------------------
<CODE> 1 (was CODE)
  Relative segment, address: E13E - E14B (0xe bytes), align: 1
  Segment part 15.
           ENTRY                   ADDRESS         REF BY
           =====                   =======         ======
           is_hour_am              E13E            display_am_pm_symbol (display)
               CSTACK = 00000000 ( 00000004 )
    -------------------------------------------------------------------------
<CODE> 1 (was CODE)
  Relative segment, address: DAB0 - DACB (0x1c bytes), align: 1
  Segment part 14.            Intra module refs:   mx_time
           ENTRY                   ADDRESS         REF BY
           =====                   =======         ======
           display_selection_Timeformat1
                                   DAB0 
               calls direct
               CSTACK = 00000000 ( 00000008 )
    -------------------------------------------------------------------------
<CODE> 1 (was CODE)
  Relative segment, address: 8C5E - 8E31 (0x1d4 bytes), align: 1
  Segment part 11.
           ENTRY                   ADDRESS         REF BY
           =====                   =======         ======
           mx_time                 8C5E            menu_L1_Time (menu)
               calls direct
               CSTACK = 00000000 ( 00000024 )
    -------------------------------------------------------------------------
<CODE> 1 (was CODE)
  Relative segment, address: E30C - E315 (0xa bytes), align: 1
  Segment part 12.            Intra module refs:   mx_time
           LOCAL                   ADDRESS         
           =====                   =======         
           ?Subroutine4            E30C 
    -------------------------------------------------------------------------
<CODE> 1 (was CODE)
  Relative segment, address: E316 - E31F (0xa bytes), align: 1
  Segment part 13.            Intra module refs:   mx_time
           LOCAL                   ADDRESS         
           =====                   =======         
           ?Subroutine3            E316 
    -------------------------------------------------------------------------
<CODE> 1 (was CODE)
  Relative segment, address: DE9A - DEAB (0x12 bytes), align: 1
  Segment part 10.
           ENTRY                   ADDRESS         REF BY
           =====                   =======         ======
           sx_time                 DE9A            menu_L1_Time (menu)
               CSTACK = 00000000 ( 00000004 )
    -------------------------------------------------------------------------
<CODE> 1 (was CODE)
  Relative segment, address: A6D2 - A7B9 (0xe8 bytes), align: 1
  Segment part 4.
           ENTRY                   ADDRESS         REF BY
           =====                   =======         ======
           display_time            A6D2            menu_L1_Time (menu)
                                                   simpliciti_get_ed_data_callback (rfsimpliciti)
                                                   start_simpliciti_tx_only (rfsimpliciti)
               calls direct
               CSTACK = 00000000 ( 00000014 )
    -------------------------------------------------------------------------
<CODE> 1 (was CODE)
  Relative segment, address: C1A0 - C1B5 (0x16 bytes), align: 1
  Segment part 5.             Intra module refs:   display_time
           LOCAL                   ADDRESS         
           =====                   =======         
           ?Subroutine2            C1A0 
    -------------------------------------------------------------------------
<CODE> 1 (was CODE)
  Relative segment, address: C1B6 - C1D9 (0x24 bytes), align: 1
  Segment part 6.             Intra module refs:   display_time
           LOCAL                   ADDRESS         
           =====                   =======         
           ?Subroutine1            C1B6 
    -------------------------------------------------------------------------
<CODE> 1 (was CODE)
  Relative segment, address: C1DA - C1DF (0x6 bytes), align: 1
  Segment part 7.             Intra module refs:   ?Subroutine1
                                                   ?Subroutine5
                                                   display_time
           LOCAL                   ADDRESS         
           =====                   =======         
           ?Subroutine6            C1DA 
    -------------------------------------------------------------------------
<CODE> 1 (was CODE)
  Relative segment, address: C1E0 - C1EB (0xc bytes), align: 1
  Segment part 8.             Intra module refs:   display_time
           LOCAL                   ADDRESS         
           =====                   =======         
           ?Subroutine0            C1E0 
    -------------------------------------------------------------------------
<CODE> 1 (was CODE)
  Relative segment, address: C1EC - C1F7 (0xc bytes), align: 1
  Segment part 9.             Intra module refs:   ?Subroutine0
                                                   ?Subroutine2
           LOCAL                   ADDRESS         
           =====                   =======         
           ?Subroutine5            C1EC 

    *************************************************************************

  FILE NAME : D:\ALaurent\Temp\git\EZ430-MyChronos\Sports Watch\915MHz - Limited IAR KickStart (USA)\Obj\cma_as.r43
  PROGRAM MODULE, NAME : cma_as

  SEGMENTS IN THE MODULE
  ======================
<CODE> 1 (was CODE)
  Relative segment, address: C7A0 - C7E9 (0x4a bytes), align: 1
  Segment part 9.
           ENTRY                   ADDRESS         REF BY
           =====                   =======         ======
           cma_as_start            C7A0            display_acceleration (acceleration)
                                                   start_simpliciti_tx_only (rfsimpliciti)
               calls direct
               CSTACK = 00000000 ( 00000004 )
    -------------------------------------------------------------------------
<CODE> 1 (was CODE)
  Relative segment, address: E48E - E491 (0x4 bytes), align: 1
  Segment part 8.
           ENTRY                   ADDRESS         REF BY
           =====                   =======         ======
           cma_as_stop             E48E            ?Subroutine2 (rfsimpliciti)
                                                   TIMER0_A0_ISR (timer)
                                                   display_acceleration (acceleration)
               calls direct
               CSTACK = 00000000 ( 00000004 )
    -------------------------------------------------------------------------
<CODE> 1 (was CODE)
  Relative segment, address: E414 - E41B (0x8 bytes), align: 1
  Segment part 7.             Intra module refs:   cma_as_get_data
           ENTRY                   ADDRESS         REF BY
           =====                   =======         ======
           cma_as_read_register    E414 
               calls direct
               CSTACK = 00000000 ( 00000004 )
    -------------------------------------------------------------------------
<CODE> 1 (was CODE)
  Relative segment, address: E348 - E351 (0xa bytes), align: 1
  Segment part 6.             Intra module refs:   cma_as_start
           ENTRY                   ADDRESS         REF BY
           =====                   =======         ======
           cma_as_write_register   E348 
               calls direct
               CSTACK = 00000000 ( 00000004 )
    -------------------------------------------------------------------------
<CODE> 1 (was CODE)
  Relative segment, address: D17C - D1AB (0x30 bytes), align: 1
  Segment part 5.
           ENTRY                   ADDRESS         REF BY
           =====                   =======         ======
           cma_as_get_data         D17C            do_acceleration_measurement (acceleration)
                                                   simpliciti_get_ed_data_callback (rfsimpliciti)
                                                   sx_acceleration (acceleration)
               calls direct
               CSTACK = 00000000 ( 00000006 )

    *************************************************************************

  FILE NAME : D:\ALaurent\Temp\git\EZ430-MyChronos\Sports Watch\915MHz - Limited IAR KickStart (USA)\Obj\cma_ps.r43
  PROGRAM MODULE, NAME : cma_ps

  SEGMENTS IN THE MODULE
  ======================
<CODE> 1 (was CODE)
  Relative segment, address: C446 - C497 (0x52 bytes), align: 1
  Segment part 9.
           ENTRY                   ADDRESS         REF BY
           =====                   =======         ======
           cma_ps_init             C446            init_application (main)
               calls direct
               CSTACK = 00000000 ( 00000006 )
    -------------------------------------------------------------------------
<CODE> 1 (was CODE)
  Relative segment, address: E366 - E36F (0xa bytes), align: 1
  Segment part 10.            Intra module refs:   cma_ps_get_pa
                                                   cma_ps_init
           LOCAL                   ADDRESS         
           =====                   =======         
           ?Subroutine1            E366 
    -------------------------------------------------------------------------
<CODE> 1 (was CODE)
  Relative segment, address: DDD4 - DDD5 (0x2 bytes), align: 1
  Segment part 6.
           ENTRY                   ADDRESS         REF BY
           =====                   =======         ======
           cma_ps_stop             DDD4            stop_altitude_measurement (altitude)
               calls direct
               CSTACK = 00000000 ( 00000004 )
    -------------------------------------------------------------------------
<CODE> 1 (was CODE)
  Relative segment, address: DDD6 - DDDD (0x8 bytes), align: 1
  Segment part 7.             Intra module refs:   cma_ps_start
                                                   cma_ps_stop
           LOCAL                   ADDRESS         
           =====                   =======         
           ?Subroutine0            DDD6 
    -------------------------------------------------------------------------
<CODE> 1 (was CODE)
  Relative segment, address: DDDE - DDE5 (0x8 bytes), align: 1
  Segment part 8.
           ENTRY                   ADDRESS         REF BY
           =====                   =======         ======
           cma_ps_start            DDDE            start_altitude_measurement (altitude)
               calls direct
               CSTACK = 00000000 ( 00000004 )
    -------------------------------------------------------------------------
<CODE> 1 (was CODE)
  Relative segment, address: E26E - E279 (0xc bytes), align: 1
  Segment part 5.             Intra module refs:   ?Subroutine0
                                                   cma_ps_init
           ENTRY                   ADDRESS         REF BY
           =====                   =======         ======
           cma_ps_write_register   E26E 
               calls direct
               CSTACK = 00000000 ( 00000004 )
    -------------------------------------------------------------------------
<CODE> 1 (was CODE)
  Relative segment, address: E262 - E26D (0xc bytes), align: 1
  Segment part 4.             Intra module refs:   ?Subroutine1
                                                   cma_ps_get_pa
                                                   cma_ps_get_temp
                                                   cma_ps_init
           ENTRY                   ADDRESS         REF BY
           =====                   =======         ======
           cma_ps_read_register    E262 
               calls direct
               CSTACK = 00000000 ( 00000004 )
    -------------------------------------------------------------------------
<CODE> 1 (was CODE)
  Relative segment, address: C028 - C089 (0x62 bytes), align: 1
  Segment part 3.
           ENTRY                   ADDRESS         REF BY
           =====                   =======         ======
           cma_ps_get_pa           C028            do_altitude_measurement (altitude)
               calls direct
               CSTACK = 00000000 ( 00000008 )
    -------------------------------------------------------------------------
<CODE> 1 (was CODE)
  Relative segment, address: C2A6 - C2F9 (0x54 bytes), align: 1
  Segment part 2.
           ENTRY                   ADDRESS         REF BY
           =====                   =======         ======
           cma_ps_get_temp         C2A6            do_altitude_measurement (altitude)
               calls direct
               CSTACK = 00000000 ( 00000008 )

    *************************************************************************

  FILE NAME : D:\ALaurent\Temp\git\EZ430-MyChronos\Sports Watch\915MHz - Limited IAR KickStart (USA)\Obj\date.r43
  PROGRAM MODULE, NAME : date

  SEGMENTS IN THE MODULE
  ======================
DATA16_Z
  Relative segment, address: 1CF8 - 1CFD (0x6 bytes), align: 1
  Segment part 2.             Intra module refs:   add_day
                                                   display_date
                                                   mx_date
                                                   reset_date
                                                   sx_date
           ENTRY                   ADDRESS         REF BY
           =====                   =======         ======
           sDate                   1CF8            simpliciti_sync_decode_ap_cmd_callback (rfsimpliciti)
                                                   simpliciti_sync_get_data_callback (rfsimpliciti)
    -------------------------------------------------------------------------
<CODE> 1 (was CODE)
  Relative segment, address: DD16 - DD29 (0x14 bytes), align: 1
  Segment part 12.
           ENTRY                   ADDRESS         REF BY
           =====                   =======         ======
           reset_date              DD16            init_global_variables (main)
               CSTACK = 00000000 ( 00000004 )
    -------------------------------------------------------------------------
<CODE> 1 (was CODE)
  Relative segment, address: BCCC - BD3F (0x74 bytes), align: 1
  Segment part 11.            Intra module refs:   add_day
                                                   mx_date
           ENTRY                   ADDRESS         REF BY
           =====                   =======         ======
           get_numberOfDays        BCCC 
               CSTACK = 00000000 ( 00000006 )
    -------------------------------------------------------------------------
<CODE> 1 (was CODE)
  Relative segment, address: CC40 - CC79 (0x3a bytes), align: 1
  Segment part 10.
           ENTRY                   ADDRESS         REF BY
           =====                   =======         ======
           add_day                 CC40            clock_tick (clock)
               calls direct
               CSTACK = 00000000 ( 00000008 )
    -------------------------------------------------------------------------
<CODE> 1 (was CODE)
  Relative segment, address: 932C - 94B5 (0x18a bytes), align: 1
  Segment part 8.
           ENTRY                   ADDRESS         REF BY
           =====                   =======         ======
           mx_date                 932C            menu_L2_Date (menu)
               calls direct
               CSTACK = 00000000 ( 0000002E )
    -------------------------------------------------------------------------
<CODE> 1 (was CODE)
  Relative segment, address: DAE8 - DB01 (0x1a bytes), align: 1
  Segment part 9.             Intra module refs:   mx_date
           LOCAL                   ADDRESS         
           =====                   =======         
           ?Subroutine1            DAE8 
    -------------------------------------------------------------------------
<CODE> 1 (was CODE)
  Relative segment, address: DD8C - DD9D (0x12 bytes), align: 1
  Segment part 7.
           ENTRY                   ADDRESS         REF BY
           =====                   =======         ======
           sx_date                 DD8C            menu_L2_Date (menu)
               CSTACK = 00000000 ( 00000004 )
    -------------------------------------------------------------------------
<CODE> 1 (was CODE)
  Relative segment, address: B94A - B9D1 (0x88 bytes), align: 1
  Segment part 3.
           ENTRY                   ADDRESS         REF BY
           =====                   =======         ======
           display_date            B94A            menu_L2_Date (menu)
               calls direct
               CSTACK = 00000000 ( 00000008 )
    -------------------------------------------------------------------------
<CODE> 1 (was CODE)
  Relative segment, address: DF9A - DFA9 (0x10 bytes), align: 1
  Segment part 4.             Intra module refs:   display_date
           LOCAL                   ADDRESS         
           =====                   =======         
           ?Subroutine2            DF9A 
    -------------------------------------------------------------------------
<CODE> 1 (was CODE)
  Relative segment, address: DDC2 - DDD3 (0x12 bytes), align: 1
  Segment part 5.             Intra module refs:   display_date
           LOCAL                   ADDRESS         
           =====                   =======         
           ?Subroutine0            DDC2 
    -------------------------------------------------------------------------
<CODE> 1 (was CODE)
  Relative segment, address: E0DC - E0E9 (0xe bytes), align: 1
  Segment part 6.             Intra module refs:   ?Subroutine0
                                                   display_date
           LOCAL                   ADDRESS         
           =====                   =======         
           ?Subroutine3            E0DC 

    *************************************************************************

  FILE NAME : D:\ALaurent\Temp\git\EZ430-MyChronos\Sports Watch\driver\ez430_chronos_drivers.r43
  LIBRARY MODULE, NAME : adc12

  SEGMENTS IN THE MODULE
  ======================
DATA16_AN
  Relative segment, address: 0700 - 0701 (0x2 bytes), align: 0
  Segment part 1. ROOT.       Intra module refs:   adc12_single_conversion
           ENTRY                   ADDRESS         REF BY
           =====                   =======         ======
           _A_ADC12CTL0_L          0700 
           LOCAL                   ADDRESS         
           =====                   =======         
           ADC12CTL0               0700 
           ADC12CTL0_H             0701 
           ADC12CTL0_L             0700 
    -------------------------------------------------------------------------
DATA16_AN
  Relative segment, address: 0702 - 0703 (0x2 bytes), align: 0
  Segment part 2. ROOT.       Intra module refs:   adc12_single_conversion
           ENTRY                   ADDRESS         REF BY
           =====                   =======         ======
           _A_ADC12CTL1_L          0702 
           LOCAL                   ADDRESS         
           =====                   =======         
           ADC12CTL1               0702 
           ADC12CTL1_H             0703 
           ADC12CTL1_L             0702 
    -------------------------------------------------------------------------
DATA16_AN
  Relative segment, address: 070C - 070D (0x2 bytes), align: 0
  Segment part 3. ROOT.       Intra module refs:   adc12_single_conversion
           ENTRY                   ADDRESS         REF BY
           =====                   =======         ======
           _A_ADC12IE_L            070C 
           LOCAL                   ADDRESS         
           =====                   =======         
           ADC12IE                 070C 
           ADC12IE_H               070D 
           ADC12IE_L               070C 
    -------------------------------------------------------------------------
DATA16_AN
  Relative segment, address: 070E - 070F (0x2 bytes), align: 0
  Segment part 4. ROOT.       Intra module refs:   ADC12ISR
           ENTRY                   ADDRESS         REF BY
           =====                   =======         ======
           _A_ADC12IV_L            070E 
           LOCAL                   ADDRESS         
           =====                   =======         
           ADC12IV                 070E 
           ADC12IV_H               070F 
           ADC12IV_L               070E 
    -------------------------------------------------------------------------
DATA16_AN
  Relative segment, address: 0720 - 0721 (0x2 bytes), align: 0
  Segment part 5. ROOT.       Intra module refs:   ADC12ISR
           ENTRY                   ADDRESS         REF BY
           =====                   =======         ======
           _A_ADC12MEM0_L          0720 
           LOCAL                   ADDRESS         
           =====                   =======         
           ADC12MEM0               0720 
           ADC12MEM0_H             0721 
           ADC12MEM0_L             0720 
    -------------------------------------------------------------------------
DATA16_AN
  Relative segment, address: 0710 - 0710 (0x1 bytes), align: 0
  Segment part 6. ROOT.       Intra module refs:   adc12_single_conversion
           ENTRY                   ADDRESS         REF BY
           =====                   =======         ======
           ADC12MCTL0              0710 
    -------------------------------------------------------------------------
DATA16_AN
  Relative segment, address: 01B0 - 01B1 (0x2 bytes), align: 0
  Segment part 7. ROOT.       Intra module refs:   adc12_single_conversion
           ENTRY                   ADDRESS         REF BY
           =====                   =======         ======
           _A_REFCTL0_L            01B0 
           LOCAL                   ADDRESS         
           =====                   =======         
           REFCTL0                 01B0 
           REFCTL0_H               01B1 
           REFCTL0_L               01B0 
    -------------------------------------------------------------------------
DATA16_Z
  Relative segment, address: 1CFE - 1CFF (0x2 bytes), align: 1
  Segment part 10.            Intra module refs:   ADC12ISR
                                                   adc12_single_conversion
           ENTRY                   ADDRESS         REF BY
           =====                   =======         ======
           adc12_result            1CFE 
    -------------------------------------------------------------------------
DATA16_Z
  Relative segment, address: 1E5C - 1E5C (0x1 bytes), align: 0
  Segment part 11.            Intra module refs:   ADC12ISR
                                                   adc12_single_conversion
           ENTRY                   ADDRESS         REF BY
           =====                   =======         ======
           adc12_data_ready        1E5C 
    -------------------------------------------------------------------------
<CODE> 1 (was CODE)
  Relative segment, address: BE94 - BEFB (0x68 bytes), align: 1
  Segment part 13.
           ENTRY                   ADDRESS         REF BY
           =====                   =======         ======
           adc12_single_conversion
                                   BE94            battery_measurement (battery)
                                                   temperature_measurement (temperature)
               calls direct
               CSTACK = 00000000 ( 00000008 )
    -------------------------------------------------------------------------
ISR_CODE
  Relative segment, address: 8538 - 8557 (0x20 bytes), align: 1
  Segment part 12.            Intra module refs:   ADC12ISR::??INTVEC 112
           ENTRY                   ADDRESS         REF BY
           =====                   =======         ======
           ADC12ISR                8538 
               interrupt function
               CSTACK = 00000000 ( 00000006 )
    -------------------------------------------------------------------------
INTVEC
  Common segment, address: FF80 - FFF1 (0x72 bytes), align: 1
  Segment part 8. ROOT.
           ENTRY                   ADDRESS         REF BY
           =====                   =======         ======
           ADC12ISR::??INTVEC 112
                                   FFF0 

    -------------------------------------------------------------------------
  LIBRARY MODULE, NAME : buzzer

  SEGMENTS IN THE MODULE
  ======================
DATA16_Z
  Relative segment, address: 1D00 - 1D07 (0x8 bytes), align: 1
  Segment part 8.             Intra module refs:   countdown_buzzer
                                                   reset_buzzer
                                                   start_buzzer
                                                   toggle_buzzer
           ENTRY                   ADDRESS         REF BY
           =====                   =======         ======
           sBuzzer                 1D00 
    -------------------------------------------------------------------------
<CODE> 1 (was CODE)
  Relative segment, address: E370 - E379 (0xa bytes), align: 1
  Segment part 15.            Intra module refs:   stop_buzzer
           ENTRY                   ADDRESS         REF BY
           =====                   =======         ======
           reset_buzzer            E370            init_global_variables (main)
               CSTACK = 00000000 ( 00000004 )
    -------------------------------------------------------------------------
<CODE> 1 (was CODE)
  Relative segment, address: C7EA - C833 (0x4a bytes), align: 1
  Segment part 14.
           ENTRY                   ADDRESS         REF BY
           =====                   =======         ======
           start_buzzer            C7EA            PORT2_ISR (ports)
                                                   process_requests (main)
               calls direct
               CSTACK = 00000000 ( 00000004 )
    -------------------------------------------------------------------------
<CODE> 1 (was CODE)
  Relative segment, address: CB8E - CBC9 (0x3c bytes), align: 1
  Segment part 12.            Intra module refs:   start_buzzer
           ENTRY                   ADDRESS         REF BY
           =====                   =======         ======
           toggle_buzzer           CB8E 
               calls direct
               CSTACK = 00000000 ( 00000004 )
    -------------------------------------------------------------------------
<CODE> 1 (was CODE)
  Relative segment, address: DCDA - DCED (0x14 bytes), align: 1
  Segment part 13.            Intra module refs:   stop_buzzer
                                                   toggle_buzzer
           LOCAL                   ADDRESS         
           =====                   =======         
           ?Subroutine0            DCDA 
    -------------------------------------------------------------------------
<CODE> 1 (was CODE)
  Relative segment, address: DE40 - DE51 (0x12 bytes), align: 1
  Segment part 11.            Intra module refs:   countdown_buzzer
           ENTRY                   ADDRESS         REF BY
           =====                   =======         ======
           stop_buzzer             DE40            set_value (user)
                                                   stop_alarm (alarm)
               calls direct
               CSTACK = 00000000 ( 00000004 )
    -------------------------------------------------------------------------
<CODE> 1 (was CODE)
  Relative segment, address: E232 - E23D (0xc bytes), align: 1
  Segment part 9.             Intra module refs:   toggle_buzzer
           ENTRY                   ADDRESS         REF BY
           =====                   =======         ======
           countdown_buzzer        E232 
               calls direct
               CSTACK = 00000000 ( 00000004 )

    -------------------------------------------------------------------------
  LIBRARY MODULE, NAME : display

  SEGMENTS IN THE MODULE
  ======================
DATA16_AN
  Relative segment, address: 0A00 - 0A01 (0x2 bytes), align: 0
  Segment part 1. ROOT.       Intra module refs:   lcd_init
           ENTRY                   ADDRESS         REF BY
           =====                   =======         ======
           _A_LCDBCTL0_L           0A00 
           LOCAL                   ADDRESS         
           =====                   =======         
           LCDBCTL0                0A00 
           LCDBCTL0_H              0A01 
           LCDBCTL0_L              0A00 
    -------------------------------------------------------------------------
DATA16_AN
  Relative segment, address: 0A04 - 0A05 (0x2 bytes), align: 0
  Segment part 2. ROOT.       Intra module refs:   lcd_init
                                                   set_blink_rate
                                                   start_blink
                                                   stop_blink
           ENTRY                   ADDRESS         REF BY
           =====                   =======         ======
           _A_LCDBBLKCTL_L         0A04 
           LOCAL                   ADDRESS         
           =====                   =======         
           LCDBBLKCTL              0A04 
           LCDBBLKCTL_H            0A05 
           LCDBBLKCTL_L            0A04 
    -------------------------------------------------------------------------
DATA16_AN
  Relative segment, address: 0A06 - 0A07 (0x2 bytes), align: 0
  Segment part 3. ROOT.       Intra module refs:   clear_blink_mem
                                                   lcd_init
           ENTRY                   ADDRESS         REF BY
           =====                   =======         ======
           _A_LCDBMEMCTL_L         0A06 
           LOCAL                   ADDRESS         
           =====                   =======         
           LCDBMEMCTL              0A06 
           LCDBMEMCTL_H            0A07 
           LCDBMEMCTL_L            0A06 
    -------------------------------------------------------------------------
DATA16_AN
  Relative segment, address: 0A0A - 0A0B (0x2 bytes), align: 0
  Segment part 4. ROOT.       Intra module refs:   lcd_init
           ENTRY                   ADDRESS         REF BY
           =====                   =======         ======
           _A_LCDBPCTL0_L          0A0A 
           LOCAL                   ADDRESS         
           =====                   =======         
           LCDBPCTL0               0A0A 
           LCDBPCTL0_H             0A0B 
           LCDBPCTL0_L             0A0A 
    -------------------------------------------------------------------------
DATA16_AN
  Relative segment, address: 0A0C - 0A0D (0x2 bytes), align: 0
  Segment part 5. ROOT.       Intra module refs:   lcd_init
           ENTRY                   ADDRESS         REF BY
           =====                   =======         ======
           _A_LCDBPCTL1_L          0A0C 
           LOCAL                   ADDRESS         
           =====                   =======         
           LCDBPCTL1               0A0C 
           LCDBPCTL1_H             0A0D 
           LCDBPCTL1_L             0A0C 
    -------------------------------------------------------------------------
DATA16_AN
  Relative segment, address: 0244 - 0245 (0x2 bytes), align: 0
  Segment part 6. ROOT.       Intra module refs:   lcd_init
           ENTRY                   ADDRESS         REF BY
           =====                   =======         ======
           _A_PCDIR_L              0244 
           LOCAL                   ADDRESS         
           =====                   =======         
           PCDIR                   0244 
           PCDIR_H                 0245 
           PCDIR_L                 0244 
    -------------------------------------------------------------------------
DATA16_C
  Relative segment, address: 81B1 - 81B8 (0x8 bytes), align: 0
  Segment part 9.             Intra module refs:   int_to_array
    -------------------------------------------------------------------------
DATA16_C
  Relative segment, address: 81B9 - 81E3 (0x2b bytes), align: 0
  Segment part 10.            Intra module refs:   display_char
           ENTRY                   ADDRESS         REF BY
           =====                   =======         ======
           lcd_font                81B9 
    -------------------------------------------------------------------------
DATA16_I
  Relative segment, address: 1C00 - 1C53 (0x54 bytes), align: 1
  Segment part 11.            Intra module refs:   display_char
                                                   display_symbol
           ENTRY                   ADDRESS         REF BY
           =====                   =======         ======
           segments_lcdmem         1C00 
    -------------------------------------------------------------------------
DATA16_C
  Relative segment, address: 81E4 - 820D (0x2a bytes), align: 0
  Segment part 13.            Intra module refs:   display_char
                                                   display_symbol
           ENTRY                   ADDRESS         REF BY
           =====                   =======         ======
           segments_bitmask        81E4 
    -------------------------------------------------------------------------
DATA16_C
  Relative segment, address: 820E - 842C (0x21f bytes), align: 0
  Segment part 14.            Intra module refs:   int_to_array
           ENTRY                   ADDRESS         REF BY
           =====                   =======         ======
           int_to_array_conversion_table
                                   820E 
    -------------------------------------------------------------------------
DATA16_Z
  Relative segment, address: 1D08 - 1D09 (0x2 bytes), align: 1
  Segment part 15.
           ENTRY                   ADDRESS         REF BY
           =====                   =======         ======
           display                 1D08            TIMER0_A0_ISR (timer)
                                                   add_day (date)
                                                   battery_measurement (battery)
                                                   display_battery_V (battery)
                                                   display_stopwatch (stopwatch)
                                                   display_update (main)
                                                   do_acceleration_measurement (acceleration)
                                                   init_global_variables (main)
                                                   main (main)
                                                   mx_alarm (alarm)
                                                   mx_altitude (altitude)
                                                   mx_temperature (temperature)
                                                   simpliciti_get_ed_data_callback (rfsimpliciti)
                                                   start_simpliciti_sync (rfsimpliciti)
                                                   start_simpliciti_tx_only (rfsimpliciti)
                                                   stopwatch_tick (stopwatch)
                                                   temperature_measurement (temperature)
                                                   update_acceleration (menu)
                                                   update_alarm (menu)
                                                   update_battery_voltage (menu)
                                                   update_date (menu)
                                                   update_stopwatch (menu)
                                                   update_temperature (menu)
                                                   update_time (menu)
                                                   wakeup_event (main)
    -------------------------------------------------------------------------
DATA16_Z
  Relative segment, address: 1E5D - 1E64 (0x8 bytes), align: 0
  Segment part 16.            Intra module refs:   int_to_array
           ENTRY                   ADDRESS         REF BY
           =====                   =======         ======
           int_to_array_str        1E5D 
    -------------------------------------------------------------------------
<CODE> 1 (was CODE)
  Relative segment, address: D478 - D4A1 (0x2a bytes), align: 1
  Segment part 34.
           ENTRY                   ADDRESS         REF BY
           =====                   =======         ======
           lcd_init                D478            init_application (main)
               CSTACK = 00000000 ( 00000004 )
    -------------------------------------------------------------------------
<CODE> 1 (was CODE)
  Relative segment, address: D97C - D997 (0x1c bytes), align: 1
  Segment part 33.
           ENTRY                   ADDRESS         REF BY
           =====                   =======         ======
           clear_display_all       D97C            mx_alarm (alarm)
                                                   mx_altitude (altitude)
                                                   mx_date (date)
                                                   mx_temperature (temperature)
                                                   mx_time (clock)
               calls direct and indirect
               CSTACK = 00000000 ( 00000004 )
    -------------------------------------------------------------------------
<CODE> 1 (was CODE)
  Relative segment, address: E226 - E231 (0xc bytes), align: 1
  Segment part 32.
           ENTRY                   ADDRESS         REF BY
           =====                   =======         ======
           clear_display           E226            mx_time (clock)
                                                   wakeup_event (main)
               calls direct
               CSTACK = 00000000 ( 00000004 )
    -------------------------------------------------------------------------
<CODE> 1 (was CODE)
  Relative segment, address: C1F8 - C24F (0x58 bytes), align: 1
  Segment part 31.            Intra module refs:   clear_display
                                                   clear_display_all
           ENTRY                   ADDRESS         REF BY
           =====                   =======         ======
           clear_line              C1F8            ?Subroutine1 (rfsimpliciti)
                                                   display_update (main)
                                                   start_simpliciti_tx_only (rfsimpliciti)
                                                   sx_rfbsl (rfbsl)
               calls direct
               CSTACK = 00000000 ( 00000006 )
    -------------------------------------------------------------------------
<CODE> 1 (was CODE)
  Relative segment, address: C2FA - C34D (0x54 bytes), align: 1
  Segment part 30.            Intra module refs:   display_char
                                                   display_symbol
           ENTRY                   ADDRESS         REF BY
           =====                   =======         ======
           write_lcd_mem           C2FA 
               CSTACK = 00000000 ( 00000004 )
    -------------------------------------------------------------------------
<CODE> 1 (was CODE)
  Relative segment, address: AF9E - B049 (0xac bytes), align: 1
  Segment part 28.            Intra module refs:   display_value
           ENTRY                   ADDRESS         REF BY
           =====                   =======         ======
           int_to_array            AF9E            ?Subroutine0 (alarm)
                                                   ?Subroutine0 (battery)
                                                   ?Subroutine0 (clock)
                                                   ?Subroutine1 (clock)
                                                   ?Subroutine1 (date)
                                                   ?Subroutine2 (clock)
                                                   ?Subroutine2 (date)
                                                   ?Subroutine3 (altitude)
                                                   ?Subroutine3 (clock)
                                                   display_acceleration (acceleration)
                                                   display_alarm (alarm)
                                                   display_date (date)
                                                   display_temperature (temperature)
                                                   mx_alarm (alarm)
                                                   mx_date (date)
               calls direct
               CSTACK = 00000000 ( 00000010 )
    -------------------------------------------------------------------------
<CODE> 1 (was CODE)
  Relative segment, address: E0B2 - E0BF (0xe bytes), align: 1
  Segment part 29.            Intra module refs:   int_to_array
           LOCAL                   ADDRESS         
           =====                   =======         
           ?Subroutine0            E0B2 
    -------------------------------------------------------------------------
<CODE> 1 (was CODE)
  Relative segment, address: D764 - D785 (0x22 bytes), align: 1
  Segment part 27.            Intra module refs:   display_hours
           ENTRY                   ADDRESS         REF BY
           =====                   =======         ======
           display_value           D764            mx_alarm (alarm)
                                                   mx_altitude (altitude)
                                                   mx_date (date)
                                                   mx_temperature (temperature)
                                                   mx_time (clock)
               calls direct
               CSTACK = 00000000 ( 0000000A )
    -------------------------------------------------------------------------
<CODE> 1 (was CODE)
  Relative segment, address: CA9A - CAD7 (0x3e bytes), align: 1
  Segment part 26.
           ENTRY                   ADDRESS         REF BY
           =====                   =======         ======
           display_hours           CA9A            mx_alarm (alarm)
                                                   mx_time (clock)
               calls direct
               CSTACK = 00000000 ( 00000012 )
    -------------------------------------------------------------------------
<CODE> 1 (was CODE)
  Relative segment, address: D86C - D88B (0x20 bytes), align: 1
  Segment part 25.            Intra module refs:   display_hours
           ENTRY                   ADDRESS         REF BY
           =====                   =======         ======
           display_am_pm_symbol    D86C            display_alarm (alarm)
                                                   display_time (clock)
               calls direct
               CSTACK = 00000000 ( 00000004 )
    -------------------------------------------------------------------------
<CODE> 1 (was CODE)
  Relative segment, address: D7A8 - D7C9 (0x22 bytes), align: 1
  Segment part 24.            Intra module refs:   clear_line
                                                   display_am_pm_symbol
           ENTRY                   ADDRESS         REF BY
           =====                   =======         ======
           display_symbol          D7A8            ?Subroutine0 (temperature)
                                                   ?Subroutine0 (timer)
                                                   ?Subroutine0 (user)
                                                   ?Subroutine3 (rfsimpliciti)
                                                   ?Subroutine4 (rfsimpliciti)
                                                   Segment part 5 (temperature)
                                                   Segment part 9 (altitude)
                                                   TIMER0_A0_ISR (timer)
                                                   battery_measurement (battery)
                                                   display_acceleration (acceleration)
                                                   display_alarm (alarm)
                                                   display_altitude (altitude)
                                                   display_battery_V (battery)
                                                   display_date (date)
                                                   display_stopwatch (stopwatch)
                                                   display_temperature (temperature)
                                                   display_time (clock)
                                                   display_update (main)
                                                   mx_alarm (alarm)
                                                   mx_altitude (altitude)
                                                   mx_date (date)
                                                   mx_time (clock)
                                                   set_value (user)
                                                   start_stopwatch (stopwatch)
                                                   stop_stopwatch (stopwatch)
                                                   sx_rfbsl (rfbsl)
               calls direct
               CSTACK = 00000000 ( 00000006 )
    -------------------------------------------------------------------------
<CODE> 1 (was CODE)
  Relative segment, address: BC58 - BCCB (0x74 bytes), align: 1
  Segment part 23.            Intra module refs:   display_chars
           ENTRY                   ADDRESS         REF BY
           =====                   =======         ======
           display_char            BC58            display_acceleration (acceleration)
                                                   display_stopwatch (stopwatch)
                                                   display_temperature (temperature)
                                                   mx_temperature (temperature)
               calls direct
               CSTACK = 00000000 ( 0000000C )
    -------------------------------------------------------------------------
<CODE> 1 (was CODE)
  Relative segment, address: ACA2 - AD63 (0xc2 bytes), align: 1
  Segment part 22.            Intra module refs:   clear_line
                                                   display_value
           ENTRY                   ADDRESS         REF BY
           =====                   =======         ======
           display_chars           ACA2            ?Subroutine0 (battery)
                                                   ?Subroutine0 (rfsimpliciti)
                                                   ?Subroutine0 (timer)
                                                   ?Subroutine1 (alarm)
                                                   ?Subroutine1 (clock)
                                                   ?Subroutine1 (date)
                                                   ?Subroutine3 (date)
                                                   ?Subroutine5 (clock)
                                                   TIMER0_A0_ISR (timer)
                                                   display_acceleration (acceleration)
                                                   display_altitude (altitude)
                                                   display_rfbsl (rfbsl)
                                                   display_selection_Timeformat1 (clock)
                                                   display_stopwatch (stopwatch)
                                                   display_temperature (temperature)
                                                   display_update (main)
                                                   mx_alarm (alarm)
                                                   mx_date (date)
                                                   mx_time (clock)
                                                   start_altitude_measurement (altitude)
                                                   sx_rfbsl (rfbsl)
               calls direct
               CSTACK = 00000000 ( 00000010 )
    -------------------------------------------------------------------------
<CODE> 1 (was CODE)
  Relative segment, address: E1F6 - E201 (0xc bytes), align: 1
  Segment part 21.            Intra module refs:   clear_line
           ENTRY                   ADDRESS         REF BY
           =====                   =======         ======
           switch_seg              E1F6            ?Subroutine0 (date)
                                                   ?Subroutine1 (alarm)
                                                   ?Subroutine3 (date)
                                                   ?Subroutine6 (clock)
                                                   display_alarm (alarm)
                                                   display_time (clock)
               CSTACK = 00000000 ( 00000004 )
    -------------------------------------------------------------------------
<CODE> 1 (was CODE)
  Relative segment, address: E466 - E46B (0x6 bytes), align: 1
  Segment part 20.
           ENTRY                   ADDRESS         REF BY
           =====                   =======         ======
           start_blink             E466            button_repeat_function (ports)
               CSTACK = 00000000 ( 00000004 )
    -------------------------------------------------------------------------
<CODE> 1 (was CODE)
  Relative segment, address: E46C - E471 (0x6 bytes), align: 1
  Segment part 19.
           ENTRY                   ADDRESS         REF BY
           =====                   =======         ======
           stop_blink              E46C            button_repeat_function (ports)
               CSTACK = 00000000 ( 00000004 )
    -------------------------------------------------------------------------
<CODE> 1 (was CODE)
  Relative segment, address: E454 - E459 (0x6 bytes), align: 1
  Segment part 18.
           ENTRY                   ADDRESS         REF BY
           =====                   =======         ======
           clear_blink_mem         E454            set_value (user)
               CSTACK = 00000000 ( 00000004 )
    -------------------------------------------------------------------------
<CODE> 1 (was CODE)
  Relative segment, address: E05E - E06B (0xe bytes), align: 1
  Segment part 17.
           ENTRY                   ADDRESS         REF BY
           =====                   =======         ======
           set_blink_rate          E05E            set_value (user)
               CSTACK = 00000000 ( 00000004 )
    -------------------------------------------------------------------------
DATA16_ID
  Relative segment, address: 8490 - 84E3 (0x54 bytes), align: 1
  Segment part 12.            Intra module refs:   segments_lcdmem

    -------------------------------------------------------------------------
  LIBRARY MODULE, NAME : pmm

  SEGMENTS IN THE MODULE
  ======================
<CODE> 1 (was CODE)
  Relative segment, address: D376 - D3A1 (0x2c bytes), align: 1
  Segment part 10.
           ENTRY                   ADDRESS         REF BY
           =====                   =======         ======
           SetVCore                D376            init_application (main)
               calls direct
               CSTACK = 00000000 ( 00000006 )
    -------------------------------------------------------------------------
<CODE> 1 (was CODE)
  Relative segment, address: C53A - C54D (0x14 bytes), align: 1
  Segment part 6.             Intra module refs:   SetVCore
           ENTRY                   ADDRESS         REF BY
           =====                   =======         ======
           SetVCoreDown            C53A 
               CSTACK = 00000000 ( 00000004 )
    -------------------------------------------------------------------------
<CODE> 1 (was CODE)
  Relative segment, address: C54E - C553 (0x6 bytes), align: 1
  Segment part 7.             Intra module refs:   SetVCoreDown
                                                   SetVCoreUp
           LOCAL                   ADDRESS         
           =====                   =======         
           ?Subroutine0            C54E 
    -------------------------------------------------------------------------
<CODE> 1 (was CODE)
  Relative segment, address: C554 - C589 (0x36 bytes), align: 1
  Segment part 8.             Intra module refs:   SetVCore
           ENTRY                   ADDRESS         REF BY
           =====                   =======         ======
           SetVCoreUp              C554 
               CSTACK = 00000000 ( 00000004 )
    -------------------------------------------------------------------------
<CODE> 1 (was CODE)
  Relative segment, address: DD02 - DD15 (0x14 bytes), align: 1
  Segment part 9.             Intra module refs:   SetVCoreDown
                                                   SetVCoreUp
           LOCAL                   ADDRESS         
           =====                   =======         
           ?Subroutine1            DD02 

    -------------------------------------------------------------------------
  LIBRARY MODULE, NAME : ports

  SEGMENTS IN THE MODULE
  ======================
DATA16_Z
  Relative segment, address: 1D0A - 1D0B (0x2 bytes), align: 1
  Segment part 10.            Intra module refs:   PORT2_ISR
                                                   button_repeat_function
           ENTRY                   ADDRESS         REF BY
           =====                   =======         ======
           button                  1D0A            ?Subroutine3 (rfsimpliciti)
                                                   TIMER0_A0_ISR (timer)
                                                   init_global_variables (main)
                                                   main (main)
                                                   mx_alarm (alarm)
                                                   mx_altitude (altitude)
                                                   mx_date (date)
                                                   mx_temperature (temperature)
                                                   mx_time (clock)
                                                   set_value (user)
                                                   sx_alarm (alarm)
                                                   sx_stopwatch (stopwatch)
                                                   wakeup_event (main)
    -------------------------------------------------------------------------
DATA16_Z
  Relative segment, address: 1D0C - 1D11 (0x6 bytes), align: 1
  Segment part 11.            Intra module refs:   PORT2_ISR
                                                   button_repeat_function
           ENTRY                   ADDRESS         REF BY
           =====                   =======         ======
           sButton                 1D0C            TIMER0_A0_ISR (timer)
                                                   set_value (user)
    -------------------------------------------------------------------------
<CODE> 1 (was CODE)
  Relative segment, address: D742 - D763 (0x22 bytes), align: 1
  Segment part 18.
           ENTRY                   ADDRESS         REF BY
           =====                   =======         ======
           init_buttons            D742            init_application (main)
               CSTACK = 00000000 ( 00000004 )
    -------------------------------------------------------------------------
ISR_CODE
  Relative segment, address: 8558 - 8751 (0x1fa bytes), align: 1
  Segment part 19.            Intra module refs:   PORT2_ISR::??INTVEC 96
           ENTRY                   ADDRESS         REF BY
           =====                   =======         ======
           PORT2_ISR               8558 
               interrupt function
               calls direct
               CSTACK = 00000000 ( 00000014 )
    -------------------------------------------------------------------------
DATA16_Z
  Relative segment, address: 1E65 - 1E65 (0x1 bytes), align: 0
  Segment part 12.            Intra module refs:   PORT2_ISR
           LOCAL                   ADDRESS         
           =====                   =======         
           PORT2_ISR::simpliciti_button_repeat
                                   1E65 
    -------------------------------------------------------------------------
<CODE> 1 (was CODE)
  Relative segment, address: D34A - D375 (0x2c bytes), align: 1
  Segment part 17.
           ENTRY                   ADDRESS         REF BY
           =====                   =======         ======
           button_repeat_on        D34A            set_value (user)
               calls direct
               CSTACK = 00000000 ( 00000004 )
    -------------------------------------------------------------------------
<CODE> 1 (was CODE)
  Relative segment, address: E3AC - E3B5 (0xa bytes), align: 1
  Segment part 16.
           ENTRY                   ADDRESS         REF BY
           =====                   =======         ======
           button_repeat_off       E3AC            set_value (user)
               calls direct
               CSTACK = 00000000 ( 00000004 )
    -------------------------------------------------------------------------
<CODE> 1 (was CODE)
  Relative segment, address: C624 - C66F (0x4c bytes), align: 1
  Segment part 15.            Intra module refs:   button_repeat_on
           ENTRY                   ADDRESS         REF BY
           =====                   =======         ======
           button_repeat_function
                                   C624 
               calls direct
               CSTACK = 00000000 ( 00000004 )
    -------------------------------------------------------------------------
DATA16_I
  Relative segment, address: 1C76 - 1C76 (0x1 bytes), align: 0
  Segment part 13.            Intra module refs:   button_repeat_function
           LOCAL                   ADDRESS         
           =====                   =======         
           button_repeat_function::start_delay
                                   1C76 
    -------------------------------------------------------------------------
INTVEC
  Common segment, address: FF80 - FFE1 (0x62 bytes), align: 1
  Segment part 8. ROOT.
           ENTRY                   ADDRESS         REF BY
           =====                   =======         ======
           PORT2_ISR::??INTVEC 96
                                   FFE0 
    -------------------------------------------------------------------------
DATA16_ID
  Relative segment, address: 8506 - 8506 (0x1 bytes), align: 0
  Segment part 14.            Intra module refs:   button_repeat_function::start_delay

    -------------------------------------------------------------------------
  LIBRARY MODULE, NAME : radio

  SEGMENTS IN THE MODULE
  ======================
DATA16_AN
  Relative segment, address: 0F06 - 0F07 (0x2 bytes), align: 0
  Segment part 1. ROOT.       Intra module refs:   radio_reset
           ENTRY                   ADDRESS         REF BY
           =====                   =======         ======
           _A_RF1AIFERR_L          0F06 
           LOCAL                   ADDRESS         
           =====                   =======         
           RF1AIFERR               0F06 
           RF1AIFERR_H             0F07 
           RF1AIFERR_L             0F06 
    -------------------------------------------------------------------------
<CODE> 1 (was CODE)
  Relative segment, address: E40C - E413 (0x8 bytes), align: 1
  Segment part 12.            Intra module refs:   radio_powerdown
                                                   radio_reset
           LOCAL                   ADDRESS         
           =====                   =======         
           ?Subroutine0            E40C 
    -------------------------------------------------------------------------
<CODE> 1 (was CODE)
  Relative segment, address: D0BA - D0EB (0x32 bytes), align: 1
  Segment part 13.            Intra module refs:   close_radio
                                                   open_radio
           ENTRY                   ADDRESS         REF BY
           =====                   =======         ======
           radio_reset             D0BA            init_application (main)
               calls direct
               CSTACK = 00000000 ( 00000006 )
    -------------------------------------------------------------------------
<CODE> 1 (was CODE)
  Relative segment, address: E1AE - E1B9 (0xc bytes), align: 1
  Segment part 11.            Intra module refs:   close_radio
           ENTRY                   ADDRESS         REF BY
           =====                   =======         ======
           radio_powerdown         E1AE            init_application (main)
               calls direct
               CSTACK = 00000000 ( 00000004 )
    -------------------------------------------------------------------------
<CODE> 1 (was CODE)
  Relative segment, address: DF18 - DF29 (0x12 bytes), align: 1
  Segment part 9.
           ENTRY                   ADDRESS         REF BY
           =====                   =======         ======
           open_radio              DF18            ?Subroutine4 (rfsimpliciti)
               calls direct
               CSTACK = 00000000 ( 00000004 )
    -------------------------------------------------------------------------
<CODE> 1 (was CODE)
  Relative segment, address: DFAA - DFB9 (0x10 bytes), align: 1
  Segment part 8.
           ENTRY                   ADDRESS         REF BY
           =====                   =======         ======
           close_radio             DFAA            ?Subroutine3 (rfsimpliciti)
               calls direct
               CSTACK = 00000000 ( 00000004 )
    -------------------------------------------------------------------------
ISR_CODE
  Relative segment, address: 8752 - 8787 (0x36 bytes), align: 1
  Segment part 7.             Intra module refs:   radio_ISR::??INTVEC 106
           ENTRY                   ADDRESS         REF BY
           =====                   =======         ======
           radio_ISR               8752 
               interrupt function
               calls direct
               CSTACK = 00000000 ( 00000010 )
    -------------------------------------------------------------------------
INTVEC
  Common segment, address: FF80 - FFEB (0x6c bytes), align: 1
  Segment part 5. ROOT.
           ENTRY                   ADDRESS         REF BY
           =====                   =======         ======
           radio_ISR::??INTVEC 106
                                   FFEA 

    -------------------------------------------------------------------------
  LIBRARY MODULE, NAME : rf1a

  SEGMENTS IN THE MODULE
  ======================
<CODE> 1 (was CODE)
  Relative segment, address: E37A - E383 (0xa bytes), align: 1
  Segment part 14.            Intra module refs:   ?Subroutine1
                                                   Strobe
           LOCAL                   ADDRESS         
           =====                   =======         
           ?Subroutine5            E37A 
    -------------------------------------------------------------------------
<CODE> 1 (was CODE)
  Relative segment, address: B9D2 - BA59 (0x88 bytes), align: 1
  Segment part 19.
           ENTRY                   ADDRESS         REF BY
           =====                   =======         ======
           Strobe                  B9D2            ?Subroutine0 (radio)
                                                   radio_powerdown (radio)
                                                   radio_reset (radio)
               calls direct
               CSTACK = 00000000 ( 0000000C )
    -------------------------------------------------------------------------
<CODE> 1 (was CODE)
  Relative segment, address: DC82 - DC97 (0x16 bytes), align: 1
  Segment part 17.            Intra module refs:   Strobe
           ENTRY                   ADDRESS         REF BY
           =====                   =======         ======
           ReadSingleReg           DC82 
               CSTACK = 00000000 ( 00000004 )
    -------------------------------------------------------------------------
<CODE> 1 (was CODE)
  Relative segment, address: D31E - D327 (0xa bytes), align: 1
  Segment part 12.            Intra module refs:   WriteSingleReg
           LOCAL                   ADDRESS         
           =====                   =======         
           ?Subroutine4            D31E 
    -------------------------------------------------------------------------
<CODE> 1 (was CODE)
  Relative segment, address: D328 - D349 (0x22 bytes), align: 1
  Segment part 15.            Intra module refs:   Strobe
           ENTRY                   ADDRESS         REF BY
           =====                   =======         ======
           WriteSingleReg          D328 
               CSTACK = 00000000 ( 00000006 )
    -------------------------------------------------------------------------
<CODE> 1 (was CODE)
  Relative segment, address: DD2A - DD3D (0x14 bytes), align: 1
  Segment part 16.            Intra module refs:   WriteSingleReg
           LOCAL                   ADDRESS         
           =====                   =======         
           ?Subroutine1            DD2A 

    -------------------------------------------------------------------------
  LIBRARY MODULE, NAME : timer

  SEGMENTS IN THE MODULE
  ======================
DATA16_AN
  Relative segment, address: 0340 - 0341 (0x2 bytes), align: 0
  Segment part 5. ROOT.       Intra module refs:   Timer0_A4_Delay
                                                   Timer0_Init
                                                   Timer0_Start
                                                   Timer0_Stop
           ENTRY                   ADDRESS         REF BY
           =====                   =======         ======
           TA0CTL                  0340 
    -------------------------------------------------------------------------
DATA16_AN
  Relative segment, address: 0342 - 0343 (0x2 bytes), align: 0
  Segment part 6. ROOT.       Intra module refs:   TIMER0_A0_ISR
                                                   Timer0_Init
           ENTRY                   ADDRESS         REF BY
           =====                   =======         ======
           TA0CCTL0                0342 
    -------------------------------------------------------------------------
DATA16_AN
  Relative segment, address: 0348 - 0349 (0x2 bytes), align: 0
  Segment part 8. ROOT.       Intra module refs:   TIMER0_A1_5_ISR
                                                   Timer0_A3_Start
                                                   Timer0_A3_Stop
           ENTRY                   ADDRESS         REF BY
           =====                   =======         ======
           TA0CCTL3                0348 
    -------------------------------------------------------------------------
DATA16_AN
  Relative segment, address: 034A - 034B (0x2 bytes), align: 0
  Segment part 9. ROOT.       Intra module refs:   TIMER0_A1_5_ISR
                                                   Timer0_A4_Delay
           ENTRY                   ADDRESS         REF BY
           =====                   =======         ======
           TA0CCTL4                034A 
    -------------------------------------------------------------------------
DATA16_AN
  Relative segment, address: 0352 - 0353 (0x2 bytes), align: 0
  Segment part 11. ROOT.      Intra module refs:   TIMER0_A0_ISR
                                                   Timer0_Init
           ENTRY                   ADDRESS         REF BY
           =====                   =======         ======
           TA0CCR0                 0352 
    -------------------------------------------------------------------------
DATA16_AN
  Relative segment, address: 0358 - 0359 (0x2 bytes), align: 0
  Segment part 12. ROOT.      Intra module refs:   TIMER0_A1_5_ISR
                                                   Timer0_A3_Start
           ENTRY                   ADDRESS         REF BY
           =====                   =======         ======
           TA0CCR3                 0358 
    -------------------------------------------------------------------------
DATA16_AN
  Relative segment, address: 035A - 035B (0x2 bytes), align: 0
  Segment part 13. ROOT.      Intra module refs:   Timer0_A4_Delay
           ENTRY                   ADDRESS         REF BY
           =====                   =======         ======
           TA0CCR4                 035A 
    -------------------------------------------------------------------------
DATA16_AN
  Relative segment, address: 036E - 036F (0x2 bytes), align: 0
  Segment part 14. ROOT.      Intra module refs:   TIMER0_A1_5_ISR
           ENTRY                   ADDRESS         REF BY
           =====                   =======         ======
           TA0IV                   036E 
    -------------------------------------------------------------------------
DATA16_Z
  Relative segment, address: 1D12 - 1D15 (0x4 bytes), align: 1
  Segment part 20.            Intra module refs:   TIMER0_A1_5_ISR
           ENTRY                   ADDRESS         REF BY
           =====                   =======         ======
           fptr_Timer0_A3_function
                                   1D12            button_repeat_on (ports)
                                                   start_buzzer (buzzer)
    -------------------------------------------------------------------------
DATA16_Z
  Relative segment, address: 1D16 - 1D17 (0x2 bytes), align: 1
  Segment part 21.            Intra module refs:   TIMER0_A1_5_ISR
                                                   Timer0_A3_Start
           ENTRY                   ADDRESS         REF BY
           =====                   =======         ======
           sTimer                  1D16            start_buzzer (buzzer)
                                                   toggle_buzzer (buzzer)
    -------------------------------------------------------------------------
<CODE> 1 (was CODE)
  Relative segment, address: DD3E - DD51 (0x14 bytes), align: 1
  Segment part 31.
           ENTRY                   ADDRESS         REF BY
           =====                   =======         ======
           Timer0_Init             DD3E            init_application (main)
               CSTACK = 00000000 ( 00000004 )
    -------------------------------------------------------------------------
<CODE> 1 (was CODE)
  Relative segment, address: E3F4 - E3FB (0x8 bytes), align: 1
  Segment part 30.
           ENTRY                   ADDRESS         REF BY
           =====                   =======         ======
           Timer0_Start            E3F4            mx_time (clock)
               CSTACK = 00000000 ( 00000004 )
    -------------------------------------------------------------------------
<CODE> 1 (was CODE)
  Relative segment, address: E15A - E165 (0xc bytes), align: 1
  Segment part 29.
           ENTRY                   ADDRESS         REF BY
           =====                   =======         ======
           Timer0_Stop             E15A            mx_time (clock)
               CSTACK = 00000000 ( 00000004 )
    -------------------------------------------------------------------------
<CODE> 1 (was CODE)
  Relative segment, address: D62A - D64D (0x24 bytes), align: 1
  Segment part 28.
           ENTRY                   ADDRESS         REF BY
           =====                   =======         ======
           Timer0_A3_Start         D62A            button_repeat_on (ports)
                                                   start_buzzer (buzzer)
               CSTACK = 00000000 ( 00000004 )
    -------------------------------------------------------------------------
<CODE> 1 (was CODE)
  Relative segment, address: E42C - E433 (0x8 bytes), align: 1
  Segment part 27.
           ENTRY                   ADDRESS         REF BY
           =====                   =======         ======
           Timer0_A3_Stop          E42C            button_repeat_off (ports)
                                                   stop_buzzer (buzzer)
               CSTACK = 00000000 ( 00000004 )
    -------------------------------------------------------------------------
<CODE> 1 (was CODE)
  Relative segment, address: C148 - C19F (0x58 bytes), align: 1
  Segment part 26.
           ENTRY                   ADDRESS         REF BY
           =====                   =======         ======
           Timer0_A4_Delay         C148            ?Subroutine3 (rfsimpliciti)
                                                   ?Subroutine4 (rfsimpliciti)
                                                   PORT2_ISR (ports)
                                                   adc12_single_conversion (adc12)
                                                   as_start (as)
                                                   cma_as_start (cma_as)
                                                   cma_ps_init (cma_ps)
                                                   ps_init (ps)
                                                   simpliciti_get_ed_data_callback (rfsimpliciti)
                                                   simpliciti_main_sync (main_ED_BM)
               calls direct
               CSTACK = 00000000 ( 00000004 )
    -------------------------------------------------------------------------
ISR_CODE
  Relative segment, address: 8788 - 89E3 (0x25c bytes), align: 1
  Segment part 24.            Intra module refs:   TIMER0_A0_ISR::??INTVEC 110
           ENTRY                   ADDRESS         REF BY
           =====                   =======         ======
           TIMER0_A0_ISR           8788 
               interrupt function
               calls direct
               CSTACK = 00000000 ( 00000010 )
    -------------------------------------------------------------------------
ISR_CODE
  Relative segment, address: 89E4 - 8A01 (0x1e bytes), align: 1
  Segment part 25.            Intra module refs:   TIMER0_A0_ISR
           LOCAL                   ADDRESS         
           =====                   =======         
           ?Subroutine0            89E4 
    -------------------------------------------------------------------------
DATA16_Z
  Relative segment, address: 1E66 - 1E66 (0x1 bytes), align: 0
  Segment part 22.            Intra module refs:   TIMER0_A0_ISR
           LOCAL                   ADDRESS         
           =====                   =======         
           TIMER0_A0_ISR::button_lock_counter
                                   1E66 
    -------------------------------------------------------------------------
ISR_CODE
  Relative segment, address: 8A02 - 8A7F (0x7e bytes), align: 1
  Segment part 23.            Intra module refs:   TIMER0_A1_5_ISR::??INTVEC 108
           ENTRY                   ADDRESS         REF BY
           =====                   =======         ======
           TIMER0_A1_5_ISR         8A02 
               interrupt function
               calls direct and indirect
               CSTACK = 00000000 ( 0000000C )
    -------------------------------------------------------------------------
INTVEC
  Common segment, address: FF80 - FFED (0x6e bytes), align: 1
  Segment part 15. ROOT.
           ENTRY                   ADDRESS         REF BY
           =====                   =======         ======
           TIMER0_A1_5_ISR::??INTVEC 108
                                   FFEC 
    -------------------------------------------------------------------------
INTVEC
  Common segment, address: FF80 - FFEF (0x70 bytes), align: 1
  Segment part 16. ROOT.
           ENTRY                   ADDRESS         REF BY
           =====                   =======         ======
           TIMER0_A0_ISR::??INTVEC 110
                                   FFEE 
    -------------------------------------------------------------------------
DATA16_C
  Relative segment, address: 842D - 8433 (0x7 bytes), align: 0
  Segment part 18.            Intra module refs:   TIMER0_A0_ISR
    -------------------------------------------------------------------------
DATA16_C
  Relative segment, address: 8434 - 8438 (0x5 bytes), align: 0
  Segment part 19.            Intra module refs:   ?Subroutine0

    *************************************************************************

  FILE NAME : D:\ALaurent\Temp\git\EZ430-MyChronos\Sports Watch\915MHz - Limited IAR KickStart (USA)\Obj\main.r43
  PROGRAM MODULE, NAME : main

  SEGMENTS IN THE MODULE
  ======================
DATA16_AN
  Relative segment, address: 024A - 024B (0x2 bytes), align: 0
  Segment part 4. ROOT.       Intra module refs:   init_application
                                                   lcd_init (display)
           ENTRY                   ADDRESS         REF BY
           =====                   =======         ======
           _A_PCSEL_L              024A 
           LOCAL                   ADDRESS         
           =====                   =======         
           PCSEL                   024A 
           PCSEL_H                 024B 
           PCSEL_L                 024A 
    -------------------------------------------------------------------------
DATA16_AN
  Relative segment, address: 01C0 - 01C1 (0x2 bytes), align: 0
  Segment part 5. ROOT.       Intra module refs:   init_application
           ENTRY                   ADDRESS         REF BY
           =====                   =======         ======
           _A_PMAPKEYID_L          01C0 
           LOCAL                   ADDRESS         
           =====                   =======         
           PMAPKEYID               01C0 
           PMAPKEYID_H             01C1 
           PMAPKEYID_L             01C0 
    -------------------------------------------------------------------------
DATA16_AN
  Relative segment, address: 01C2 - 01C3 (0x2 bytes), align: 0
  Segment part 6. ROOT.       Intra module refs:   init_application
           ENTRY                   ADDRESS         REF BY
           =====                   =======         ======
           _A_PMAPCTL_L            01C2 
           LOCAL                   ADDRESS         
           =====                   =======         
           PMAPCTL                 01C2 
           PMAPCTL_H               01C3 
           PMAPCTL_L               01C2 
    -------------------------------------------------------------------------
DATA16_AN
  Relative segment, address: 01C8 - 01C9 (0x2 bytes), align: 0
  Segment part 7. ROOT.       Intra module refs:   init_application
           ENTRY                   ADDRESS         REF BY
           =====                   =======         ======
           _A_P1MAP01_L            01C8 
           LOCAL                   ADDRESS         
           =====                   =======         
           P1MAP01                 01C8 
           P1MAP01_H               01C9 
           P1MAP01_L               01C8 
    -------------------------------------------------------------------------
DATA16_AN
  Relative segment, address: 01D0 - 01D1 (0x2 bytes), align: 0
  Segment part 8. ROOT.       Intra module refs:   init_application
           ENTRY                   ADDRESS         REF BY
           =====                   =======         ======
           _A_P2MAP01_L            01D0 
           LOCAL                   ADDRESS         
           =====                   =======         
           P2MAP01                 01D0 
           P2MAP01_H               01D1 
           P2MAP01_L               01D0 
    -------------------------------------------------------------------------
DATA16_AN
  Relative segment, address: 0120 - 0121 (0x2 bytes), align: 0
  Segment part 9. ROOT.       Intra module refs:   SetVCore (bsp)
                                                   SetVCore (pmm)
                                                   SetVCoreDown (pmm)
                                                   SetVCoreUp (bsp)
                                                   SetVCoreUp (pmm)
                                                   init_application
           ENTRY                   ADDRESS         REF BY
           =====                   =======         ======
           _A_PMMCTL0_L            0120 
           LOCAL                   ADDRESS         
           =====                   =======         
           PMMCTL0                 0120 
           PMMCTL0_H               0121 
           PMMCTL0_L               0120 
    -------------------------------------------------------------------------
DATA16_AN
  Relative segment, address: 0102 - 0103 (0x2 bytes), align: 0
  Segment part 10. ROOT.      Intra module refs:   Bsp_SetClocks (bsp)
                                                   init_application
           ENTRY                   ADDRESS         REF BY
           =====                   =======         ======
           _A_SFRIFG1_L            0102 
           LOCAL                   ADDRESS         
           =====                   =======         
           SFRIFG1                 0102 
           SFRIFG1_H               0103 
           SFRIFG1_L               0102 
    -------------------------------------------------------------------------
DATA16_AN
  Relative segment, address: 0160 - 0161 (0x2 bytes), align: 0
  Segment part 11. ROOT.      Intra module refs:   Bsp_SetClocks (bsp)
                                                   init_application
           ENTRY                   ADDRESS         REF BY
           =====                   =======         ======
           _A_UCSCTL0_L            0160 
           LOCAL                   ADDRESS         
           =====                   =======         
           UCSCTL0                 0160 
           UCSCTL0_H               0161 
           UCSCTL0_L               0160 
    -------------------------------------------------------------------------
DATA16_AN
  Relative segment, address: 0162 - 0163 (0x2 bytes), align: 0
  Segment part 12. ROOT.      Intra module refs:   Bsp_SetClocks (bsp)
                                                   init_application
           ENTRY                   ADDRESS         REF BY
           =====                   =======         ======
           _A_UCSCTL1_L            0162 
           LOCAL                   ADDRESS         
           =====                   =======         
           UCSCTL1                 0162 
           UCSCTL1_H               0163 
           UCSCTL1_L               0162 
    -------------------------------------------------------------------------
DATA16_AN
  Relative segment, address: 0164 - 0165 (0x2 bytes), align: 0
  Segment part 13. ROOT.      Intra module refs:   Bsp_SetClocks (bsp)
                                                   init_application
           ENTRY                   ADDRESS         REF BY
           =====                   =======         ======
           _A_UCSCTL2_L            0164 
           LOCAL                   ADDRESS         
           =====                   =======         
           UCSCTL2                 0164 
           UCSCTL2_H               0165 
           UCSCTL2_L               0164 
    -------------------------------------------------------------------------
DATA16_AN
  Relative segment, address: 0166 - 0167 (0x2 bytes), align: 0
  Segment part 14. ROOT.      Intra module refs:   Bsp_SetClocks (bsp)
                                                   init_application
           ENTRY                   ADDRESS         REF BY
           =====                   =======         ======
           _A_UCSCTL3_L            0166 
           LOCAL                   ADDRESS         
           =====                   =======         
           UCSCTL3                 0166 
           UCSCTL3_H               0167 
           UCSCTL3_L               0166 
    -------------------------------------------------------------------------
DATA16_AN
  Relative segment, address: 0168 - 0169 (0x2 bytes), align: 0
  Segment part 15. ROOT.      Intra module refs:   Bsp_SetClocks (bsp)
                                                   init_application
           ENTRY                   ADDRESS         REF BY
           =====                   =======         ======
           _A_UCSCTL4_L            0168 
           LOCAL                   ADDRESS         
           =====                   =======         
           UCSCTL4                 0168 
           UCSCTL4_H               0169 
           UCSCTL4_L               0168 
    -------------------------------------------------------------------------
DATA16_AN
  Relative segment, address: 016C - 016D (0x2 bytes), align: 0
  Segment part 16. ROOT.      Intra module refs:   init_application
           ENTRY                   ADDRESS         REF BY
           =====                   =======         ======
           _A_UCSCTL6_L            016C 
           LOCAL                   ADDRESS         
           =====                   =======         
           UCSCTL6                 016C 
           UCSCTL6_H               016D 
           UCSCTL6_L               016C 
    -------------------------------------------------------------------------
DATA16_AN
  Relative segment, address: 016E - 016F (0x2 bytes), align: 0
  Segment part 17. ROOT.      Intra module refs:   Bsp_SetClocks (bsp)
                                                   init_application
           ENTRY                   ADDRESS         REF BY
           =====                   =======         ======
           _A_UCSCTL7_L            016E 
           LOCAL                   ADDRESS         
           =====                   =======         
           UCSCTL7                 016E 
           UCSCTL7_H               016F 
           UCSCTL7_L               016E 
    -------------------------------------------------------------------------
DATA16_AN
  Relative segment, address: 015C - 015D (0x2 bytes), align: 0
  Segment part 18. ROOT.      Intra module refs:   __low_level_init (bsp)
                                                   init_application
           ENTRY                   ADDRESS         REF BY
           =====                   =======         ======
           _A_WDTCTL_L             015C 
           LOCAL                   ADDRESS         
           =====                   =======         
           WDTCTL                  015C 
           WDTCTL_H                015D 
           WDTCTL_L                015C 
    -------------------------------------------------------------------------
DATA16_Z
  Relative segment, address: 1D18 - 1D19 (0x2 bytes), align: 1
  Segment part 25.            Intra module refs:   init_global_variables
                                                   main
                                                   wakeup_event
           ENTRY                   ADDRESS         REF BY
           =====                   =======         ======
           sys                     1D18            ?Subroutine2 (date)
                                                   PORT2_ISR (ports)
                                                   Segment part 8 (temperature)
                                                   TIMER0_A0_ISR (timer)
                                                   TIMER0_A1_5_ISR (timer)
                                                   Timer0_A4_Delay (timer)
                                                   battery_measurement (battery)
                                                   button_repeat_off (ports)
                                                   button_repeat_on (ports)
                                                   display_alarm (alarm)
                                                   display_altitude (altitude)
                                                   display_hours (display)
                                                   display_time (clock)
                                                   mx_alarm (alarm)
                                                   mx_altitude (altitude)
                                                   mx_date (date)
                                                   mx_temperature (temperature)
                                                   mx_time (clock)
                                                   set_value (user)
                                                   simpliciti_sync_decode_ap_cmd_callback (rfsimpliciti)
                                                   simpliciti_sync_get_data_callback (rfsimpliciti)
                                                   sx_ppt (rfsimpliciti)
                                                   sx_rf (rfsimpliciti)
                                                   sx_rfbsl (rfbsl)
                                                   sx_sync (rfsimpliciti)
    -------------------------------------------------------------------------
DATA16_Z
  Relative segment, address: 1D1A - 1D1B (0x2 bytes), align: 1
  Segment part 26.            Intra module refs:   init_global_variables
                                                   main
                                                   process_requests
           ENTRY                   ADDRESS         REF BY
           =====                   =======         ======
           request                 1D1A            PORT2_ISR (ports)
                                                   TIMER0_A0_ISR (timer)
                                                   simpliciti_get_ed_data_callback (rfsimpliciti)
    -------------------------------------------------------------------------
DATA16_Z
  Relative segment, address: 1D1C - 1D1D (0x2 bytes), align: 1
  Segment part 27.            Intra module refs:   display_update
                                                   init_global_variables
                                                   wakeup_event
           ENTRY                   ADDRESS         REF BY
           =====                   =======         ======
           message                 1D1C            TIMER0_A0_ISR (timer)
                                                   sx_alarm (alarm)
    -------------------------------------------------------------------------
DATA16_Z
  Relative segment, address: 1E67 - 1E67 (0x1 bytes), align: 0
  Segment part 28.            Intra module refs:   init_application
           ENTRY                   ADDRESS         REF BY
           =====                   =======         ======
           bmp_used                1E67            ?Subroutine2 (rfsimpliciti)
                                                   TIMER0_A0_ISR (timer)
                                                   convert_acceleration_value_to_mgrav (acceleration)
                                                   display_acceleration (acceleration)
                                                   do_acceleration_measurement (acceleration)
                                                   do_altitude_measurement (altitude)
                                                   simpliciti_get_ed_data_callback (rfsimpliciti)
                                                   start_altitude_measurement (altitude)
                                                   start_simpliciti_tx_only (rfsimpliciti)
                                                   stop_altitude_measurement (altitude)
                                                   sx_acceleration (acceleration)
    -------------------------------------------------------------------------
DATA16_Z
  Relative segment, address: 1E68 - 1E68 (0x1 bytes), align: 0
  Segment part 29.            Intra module refs:   init_application
           ENTRY                   ADDRESS         REF BY
           =====                   =======         ======
           chronos_black           1E68            MRFI_Init (mrfi)
                                                   MRFI_SetRFPwr (mrfi)
    -------------------------------------------------------------------------
DATA16_Z
  Relative segment, address: 1E69 - 1E69 (0x1 bytes), align: 0
  Segment part 30.            Intra module refs:   read_calibration_values
           ENTRY                   ADDRESS         REF BY
           =====                   =======         ======
           rf_frequoffset          1E69            MRFI_Init (mrfi)
    -------------------------------------------------------------------------
DATA16_Z
  Relative segment, address: 1D1E - 1D21 (0x4 bytes), align: 1
  Segment part 31.            Intra module refs:   display_update
                                                   init_global_variables
                                                   wakeup_event
           ENTRY                   ADDRESS         REF BY
           =====                   =======         ======
           fptr_lcd_function_line1
                                   1D1E            ?Subroutine1 (rfsimpliciti)
                                                   clear_display_all (display)
    -------------------------------------------------------------------------
DATA16_Z
  Relative segment, address: 1D22 - 1D25 (0x4 bytes), align: 1
  Segment part 32.            Intra module refs:   display_update
                                                   init_global_variables
                                                   wakeup_event
           ENTRY                   ADDRESS         REF BY
           =====                   =======         ======
           fptr_lcd_function_line2
                                   1D22            clear_display_all (display)
    -------------------------------------------------------------------------
<CODE> 1 (was CODE)
  Relative segment, address: CE40 - CE77 (0x38 bytes), align: 1
  Segment part 42.
           ENTRY                   ADDRESS         REF BY
           =====                   =======         ======
           main                    CE40            Segment part 22 (?cstart)
               calls direct
               CSTACK = 00000000 ( 00000004 )
    -------------------------------------------------------------------------
<CODE> 1 (was CODE)
  Relative segment, address: A7BA - A899 (0xe0 bytes), align: 1
  Segment part 41.            Intra module refs:   main
           ENTRY                   ADDRESS         REF BY
           =====                   =======         ======
           init_application        A7BA 
               calls direct
               CSTACK = 00000000 ( 00000004 )
    -------------------------------------------------------------------------
<CODE> 1 (was CODE)
  Relative segment, address: BE24 - BE93 (0x70 bytes), align: 1
  Segment part 40.            Intra module refs:   main
           ENTRY                   ADDRESS         REF BY
           =====                   =======         ======
           init_global_variables   BE24 
               calls direct
               CSTACK = 00000000 ( 00000004 )
    -------------------------------------------------------------------------
<CODE> 1 (was CODE)
  Relative segment, address: 9FDE - A101 (0x124 bytes), align: 1
  Segment part 39.            Intra module refs:   main
           ENTRY                   ADDRESS         REF BY
           =====                   =======         ======
           wakeup_event            9FDE 
               calls direct and indirect
               CSTACK = 00000000 ( 00000004 )
    -------------------------------------------------------------------------
<CODE> 1 (was CODE)
  Relative segment, address: C87E - C8C5 (0x48 bytes), align: 1
  Segment part 38.            Intra module refs:   main
           ENTRY                   ADDRESS         REF BY
           =====                   =======         ======
           process_requests        C87E 
               calls direct
               CSTACK = 00000000 ( 00000004 )
    -------------------------------------------------------------------------
<CODE> 1 (was CODE)
  Relative segment, address: 9C5C - 9D8B (0x130 bytes), align: 1
  Segment part 36.            Intra module refs:   main
           ENTRY                   ADDRESS         REF BY
           =====                   =======         ======
           display_update          9C5C 
               calls direct and indirect
               CSTACK = 00000000 ( 00000010 )
    -------------------------------------------------------------------------
<CODE> 1 (was CODE)
  Relative segment, address: DFDA - DFE9 (0x10 bytes), align: 1
  Segment part 37.            Intra module refs:   display_update
           LOCAL                   ADDRESS         
           =====                   =======         
           ?Subroutine0            DFDA 
    -------------------------------------------------------------------------
<CODE> 1 (was CODE)
  Relative segment, address: E3DC - E3E3 (0x8 bytes), align: 1
  Segment part 35.            Intra module refs:   idle_loop
                                                   main
           ENTRY                   ADDRESS         REF BY
           =====                   =======         ======
           to_lpm                  E3DC            Timer0_A4_Delay (timer)
               CSTACK = 00000000 ( 00000004 )
    -------------------------------------------------------------------------
<CODE> 1 (was CODE)
  Relative segment, address: E482 - E485 (0x4 bytes), align: 1
  Segment part 34.
           ENTRY                   ADDRESS         REF BY
           =====                   =======         ======
           idle_loop               E482            set_value (user)
               calls direct
               CSTACK = 00000000 ( 00000004 )
    -------------------------------------------------------------------------
<CODE> 1 (was CODE)
  Relative segment, address: AE26 - AEE3 (0xbe bytes), align: 1
  Segment part 33.            Intra module refs:   init_global_variables
           ENTRY                   ADDRESS         REF BY
           =====                   =======         ======
           read_calibration_values
                                   AE26 
               CSTACK = 00000000 ( 00000012 )
    -------------------------------------------------------------------------
DATA16_C
  Relative segment, address: 8439 - 843F (0x7 bytes), align: 0
  Segment part 20.            Intra module refs:   display_update
    -------------------------------------------------------------------------
DATA16_C
  Relative segment, address: 8440 - 8446 (0x7 bytes), align: 0
  Segment part 21.            Intra module refs:   display_update
    -------------------------------------------------------------------------
DATA16_C
  Relative segment, address: 8447 - 844D (0x7 bytes), align: 0
  Segment part 22.            Intra module refs:   display_update
    -------------------------------------------------------------------------
DATA16_C
  Relative segment, address: 844E - 8452 (0x5 bytes), align: 0
  Segment part 23.            Intra module refs:   display_update
    -------------------------------------------------------------------------
DATA16_C
  Relative segment, address: 8453 - 8457 (0x5 bytes), align: 0
  Segment part 24.            Intra module refs:   display_update

    *************************************************************************

  FILE NAME : D:\ALaurent\Temp\git\EZ430-MyChronos\Sports Watch\915MHz - Limited IAR KickStart (USA)\Obj\menu.r43
  PROGRAM MODULE, NAME : menu

  SEGMENTS IN THE MODULE
  ======================
DATA16_Z
  Relative segment, address: 1D26 - 1D27 (0x2 bytes), align: 1
  Segment part 2.
           ENTRY                   ADDRESS         REF BY
           =====                   =======         ======
           ptrMenu_L1              1D26            display_update (main)
                                                   init_global_variables (main)
                                                   wakeup_event (main)
    -------------------------------------------------------------------------
DATA16_Z
  Relative segment, address: 1D28 - 1D29 (0x2 bytes), align: 1
  Segment part 3.
           ENTRY                   ADDRESS         REF BY
           =====                   =======         ======
           ptrMenu_L2              1D28            display_update (main)
                                                   init_global_variables (main)
                                                   is_stopwatch (stopwatch)
                                                   wakeup_event (main)
    -------------------------------------------------------------------------
<CODE> 1 (was CODE)
  Relative segment, address: E172 - E17D (0xc bytes), align: 1
  Segment part 23.            Intra module refs:   menu_L1_Altitude
                                                   menu_L1_Time
                                                   menu_L2_Ppt
                                                   menu_L2_RFBSL
                                                   menu_L2_Rf
                                                   menu_L2_Sync
           ENTRY                   ADDRESS         REF BY
           =====                   =======         ======
           update_time             E172 
               CSTACK = 00000000 ( 00000004 )
    -------------------------------------------------------------------------
<CODE> 1 (was CODE)
  Relative segment, address: E17E - E189 (0xc bytes), align: 1
  Segment part 22.            Intra module refs:   menu_L2_Stopwatch
           ENTRY                   ADDRESS         REF BY
           =====                   =======         ======
           update_stopwatch        E17E 
               CSTACK = 00000000 ( 00000004 )
    -------------------------------------------------------------------------
<CODE> 1 (was CODE)
  Relative segment, address: CC06 - CC0B (0x6 bytes), align: 1
  Segment part 16.            Intra module refs:   menu_L1_Acceleration
           ENTRY                   ADDRESS         REF BY
           =====                   =======         ======
           update_acceleration     CC06 
               CSTACK = 00000000 ( 00000004 )
    -------------------------------------------------------------------------
<CODE> 1 (was CODE)
  Relative segment, address: CC0C - CC13 (0x8 bytes), align: 1
  Segment part 17.            Intra module refs:   update_acceleration
                                                   update_alarm
                                                   update_date
           LOCAL                   ADDRESS         
           =====                   =======         
           ?Subroutine0            CC0C 
    -------------------------------------------------------------------------
<CODE> 1 (was CODE)
  Relative segment, address: CC14 - CC1F (0xc bytes), align: 1
  Segment part 18.            Intra module refs:   menu_L2_Battery
           ENTRY                   ADDRESS         REF BY
           =====                   =======         ======
           update_battery_voltage
                                   CC14 
               CSTACK = 00000000 ( 00000004 )
    -------------------------------------------------------------------------
<CODE> 1 (was CODE)
  Relative segment, address: CC20 - CC2B (0xc bytes), align: 1
  Segment part 19.            Intra module refs:   menu_L1_Temperature
           ENTRY                   ADDRESS         REF BY
           =====                   =======         ======
           update_temperature      CC20 
               CSTACK = 00000000 ( 00000004 )
    -------------------------------------------------------------------------
<CODE> 1 (was CODE)
  Relative segment, address: CC2C - CC35 (0xa bytes), align: 1
  Segment part 20.            Intra module refs:   menu_L1_Alarm
           ENTRY                   ADDRESS         REF BY
           =====                   =======         ======
           update_alarm            CC2C 
               CSTACK = 00000000 ( 00000004 )
    -------------------------------------------------------------------------
<CODE> 1 (was CODE)
  Relative segment, address: CC36 - CC3F (0xa bytes), align: 1
  Segment part 21.            Intra module refs:   menu_L2_Date
           ENTRY                   ADDRESS         REF BY
           =====                   =======         ======
           update_date             CC36 
               CSTACK = 00000000 ( 00000004 )
    -------------------------------------------------------------------------
DATA16_C
  Relative segment, address: 8034 - 8045 (0x12 bytes), align: 1
  Segment part 4.             Intra module refs:   menu_L1_Acceleration
           ENTRY                   ADDRESS         REF BY
           =====                   =======         ======
           menu_L1_Time            8034            init_global_variables (main)
    -------------------------------------------------------------------------
DATA16_C
  Relative segment, address: 8046 - 8057 (0x12 bytes), align: 1
  Segment part 5.             Intra module refs:   menu_L1_Time
           ENTRY                   ADDRESS         REF BY
           =====                   =======         ======
           menu_L1_Alarm           8046 
    -------------------------------------------------------------------------
DATA16_C
  Relative segment, address: 8058 - 8069 (0x12 bytes), align: 1
  Segment part 6.             Intra module refs:   menu_L1_Alarm
           ENTRY                   ADDRESS         REF BY
           =====                   =======         ======
           menu_L1_Temperature     8058 
    -------------------------------------------------------------------------
DATA16_C
  Relative segment, address: 806A - 807B (0x12 bytes), align: 1
  Segment part 7.             Intra module refs:   menu_L1_Temperature
           ENTRY                   ADDRESS         REF BY
           =====                   =======         ======
           menu_L1_Altitude        806A 
    -------------------------------------------------------------------------
DATA16_C
  Relative segment, address: 807C - 808D (0x12 bytes), align: 1
  Segment part 8.             Intra module refs:   menu_L1_Altitude
           ENTRY                   ADDRESS         REF BY
           =====                   =======         ======
           menu_L1_Acceleration    807C 
    -------------------------------------------------------------------------
DATA16_C
  Relative segment, address: 808E - 809F (0x12 bytes), align: 1
  Segment part 9.             Intra module refs:   menu_L2_RFBSL
           ENTRY                   ADDRESS         REF BY
           =====                   =======         ======
           menu_L2_Date            808E            init_global_variables (main)
    -------------------------------------------------------------------------
DATA16_C
  Relative segment, address: 80A0 - 80B1 (0x12 bytes), align: 1
  Segment part 10.            Intra module refs:   menu_L2_Date
           ENTRY                   ADDRESS         REF BY
           =====                   =======         ======
           menu_L2_Stopwatch       80A0            is_stopwatch (stopwatch)
    -------------------------------------------------------------------------
DATA16_C
  Relative segment, address: 80B2 - 80C3 (0x12 bytes), align: 1
  Segment part 11.            Intra module refs:   menu_L2_Stopwatch
           ENTRY                   ADDRESS         REF BY
           =====                   =======         ======
           menu_L2_Battery         80B2 
    -------------------------------------------------------------------------
DATA16_C
  Relative segment, address: 80C4 - 80D5 (0x12 bytes), align: 1
  Segment part 12.            Intra module refs:   menu_L2_Battery
           ENTRY                   ADDRESS         REF BY
           =====                   =======         ======
           menu_L2_Rf              80C4 
    -------------------------------------------------------------------------
DATA16_C
  Relative segment, address: 80D6 - 80E7 (0x12 bytes), align: 1
  Segment part 13.            Intra module refs:   menu_L2_Rf
           ENTRY                   ADDRESS         REF BY
           =====                   =======         ======
           menu_L2_Ppt             80D6 
    -------------------------------------------------------------------------
DATA16_C
  Relative segment, address: 80E8 - 80F9 (0x12 bytes), align: 1
  Segment part 14.            Intra module refs:   menu_L2_Ppt
           ENTRY                   ADDRESS         REF BY
           =====                   =======         ======
           menu_L2_Sync            80E8 
    -------------------------------------------------------------------------
DATA16_C
  Relative segment, address: 80FA - 810B (0x12 bytes), align: 1
  Segment part 15.            Intra module refs:   menu_L2_Sync
           ENTRY                   ADDRESS         REF BY
           =====                   =======         ======
           menu_L2_RFBSL           80FA 

    *************************************************************************

  FILE NAME : D:\ALaurent\Temp\git\EZ430-MyChronos\Sports Watch\915MHz - Limited IAR KickStart (USA)\Obj\ps.r43
  PROGRAM MODULE, NAME : ps

  SEGMENTS IN THE MODULE
  ======================
DATA16_AN
  Relative segment, address: 0320 - 0321 (0x2 bytes), align: 0
  Segment part 3. ROOT.       Intra module refs:   ps_i2c_read
                                                   ps_i2c_sda
           ENTRY                   ADDRESS         REF BY
           =====                   =======         ======
           _A_PJIN_L               0320 
           LOCAL                   ADDRESS         
           =====                   =======         
           PJIN                    0320 
           PJIN_H                  0321 
           PJIN_L                  0320 
    -------------------------------------------------------------------------
DATA16_C
  Relative segment, address: 810C - 812D (0x22 bytes), align: 1
  Segment part 7.             Intra module refs:   conv_pa_to_meter
                                                   update_pressure_table
           ENTRY                   ADDRESS         REF BY
           =====                   =======         ======
           h0                      810C 
    -------------------------------------------------------------------------
DATA16_C
  Relative segment, address: 812E - 814F (0x22 bytes), align: 1
  Segment part 8.             Intra module refs:   init_pressure_table
                                                   update_pressure_table
           ENTRY                   ADDRESS         REF BY
           =====                   =======         ======
           p0                      812E 
    -------------------------------------------------------------------------
DATA16_Z
  Relative segment, address: 1D2A - 1D6D (0x44 bytes), align: 1
  Segment part 9.             Intra module refs:   conv_pa_to_meter
                                                   init_pressure_table
                                                   update_pressure_table
           ENTRY                   ADDRESS         REF BY
           =====                   =======         ======
           p                       1D2A 
    -------------------------------------------------------------------------
DATA16_Z
  Relative segment, address: 1E6A - 1E6A (0x1 bytes), align: 0
  Segment part 10.            Intra module refs:   ps_init
           ENTRY                   ADDRESS         REF BY
           =====                   =======         ======
           ps_ok                   1E6A            bmp_ps_init (bmp_ps)
                                                   cma_ps_init (cma_ps)
                                                   init_application (main)
                                                   reset_altitude_measurement (altitude)
                                                   start_altitude_measurement (altitude)
                                                   stop_altitude_measurement (altitude)
    -------------------------------------------------------------------------
<CODE> 1 (was CODE)
  Relative segment, address: D672 - D695 (0x24 bytes), align: 1
  Segment part 50.
           ENTRY                   ADDRESS         REF BY
           =====                   =======         ======
           ps_init                 D672            bmp_ps_init (bmp_ps)
                                                   cma_ps_init (cma_ps)
               calls direct
               CSTACK = 00000000 ( 00000004 )
    -------------------------------------------------------------------------
<CODE> 1 (was CODE)
  Relative segment, address: C708 - C739 (0x32 bytes), align: 1
  Segment part 45.            Intra module refs:   ?Subroutine15
                                                   ?Subroutine23
           ENTRY                   ADDRESS         REF BY
           =====                   =======         ======
           ps_i2c_write            C708 
               calls direct
               CSTACK = 00000000 ( 00000004 )
    -------------------------------------------------------------------------
<CODE> 1 (was CODE)
  Relative segment, address: C73A - C73D (0x4 bytes), align: 1
  Segment part 46.            Intra module refs:   ps_i2c_read
                                                   ps_i2c_sda
           LOCAL                   ADDRESS         
           =====                   =======         
           ?Subroutine18           C73A 
    -------------------------------------------------------------------------
<CODE> 1 (was CODE)
  Relative segment, address: C73E - C749 (0xc bytes), align: 1
  Segment part 47.            Intra module refs:   ?Subroutine18
                                                   ps_i2c_read
                                                   ps_i2c_write
    -------------------------------------------------------------------------
<CODE> 1 (was CODE)
  Relative segment, address: C74A - C753 (0xa bytes), align: 1
  Segment part 48.            Intra module refs:   ps_i2c_read
                                                   ps_i2c_sda
                                                   ps_i2c_write
           LOCAL                   ADDRESS         
           =====                   =======         
           ?Subroutine17           C74A 
    -------------------------------------------------------------------------
<CODE> 1 (was CODE)
  Relative segment, address: BDB2 - BE23 (0x72 bytes), align: 1
  Segment part 49.            Intra module refs:   ?Subroutine14
                                                   ?Subroutine15
                                                   ?Subroutine23
                                                   ps_read_register
                                                   ps_write_register
           ENTRY                   ADDRESS         REF BY
           =====                   =======         ======
           ps_i2c_sda              BDB2 
               calls direct
               CSTACK = 00000000 ( 00000004 )
    -------------------------------------------------------------------------
<CODE> 1 (was CODE)
  Relative segment, address: CB16 - CB51 (0x3c bytes), align: 1
  Segment part 44.            Intra module refs:   ps_read_register
           ENTRY                   ADDRESS         REF BY
           =====                   =======         ======
           ps_i2c_read             CB16 
               calls direct
               CSTACK = 00000000 ( 00000004 )
    -------------------------------------------------------------------------
<CODE> 1 (was CODE)
  Relative segment, address: CF20 - CF55 (0x36 bytes), align: 1
  Segment part 40.
           ENTRY                   ADDRESS         REF BY
           =====                   =======         ======
           ps_write_register       CF20            bmp_ps_write_register (bmp_ps)
                                                   cma_ps_write_register (cma_ps)
               calls direct
               CSTACK = 00000000 ( 0000000E )
    -------------------------------------------------------------------------
<CODE> 1 (was CODE)
  Relative segment, address: DEF4 - DF05 (0x12 bytes), align: 1
  Segment part 41.            Intra module refs:   ps_write_register
           LOCAL                   ADDRESS         
           =====                   =======         
           ?Subroutine15           DEF4 
    -------------------------------------------------------------------------
<CODE> 1 (was CODE)
  Relative segment, address: DB02 - DB0F (0xe bytes), align: 1
  Segment part 42.            Intra module refs:   ps_read_register
                                                   ps_write_register
           LOCAL                   ADDRESS         
           =====                   =======         
           ?Subroutine14           DB02 
    -------------------------------------------------------------------------
<CODE> 1 (was CODE)
  Relative segment, address: DB10 - DB1B (0xc bytes), align: 1
  Segment part 43.            Intra module refs:   ?Subroutine14
                                                   ?Subroutine16
           LOCAL                   ADDRESS         
           =====                   =======         
           ?Subroutine23           DB10 
    -------------------------------------------------------------------------
<CODE> 1 (was CODE)
  Relative segment, address: C250 - C2A5 (0x56 bytes), align: 1
  Segment part 38.
           ENTRY                   ADDRESS         REF BY
           =====                   =======         ======
           ps_read_register        C250            bmp_ps_read_register (bmp_ps)
                                                   cma_ps_read_register (cma_ps)
               calls direct
               CSTACK = 00000000 ( 0000000C )
    -------------------------------------------------------------------------
<CODE> 1 (was CODE)
  Relative segment, address: E424 - E42B (0x8 bytes), align: 1
  Segment part 39.            Intra module refs:   ps_read_register
           LOCAL                   ADDRESS         
           =====                   =======         
           ?Subroutine16           E424 
    -------------------------------------------------------------------------
<CODE> 1 (was CODE)
  Relative segment, address: E49A - E49D (0x4 bytes), align: 1
  Segment part 37.            Intra module refs:   Segment part 47
                                                   ps_i2c_sda
           ENTRY                   ADDRESS         REF BY
           =====                   =======         ======
           ps_i2c_delay            E49A 
               CSTACK = 00000000 ( 00000004 )
    -------------------------------------------------------------------------
<CODE> 1 (was CODE)
  Relative segment, address: D44E - D477 (0x2a bytes), align: 1
  Segment part 36.
           ENTRY                   ADDRESS         REF BY
           =====                   =======         ======
           init_pressure_table     D44E            reset_altitude_measurement (altitude)
               calls direct
               CSTACK = 00000000 ( 00000008 )
    -------------------------------------------------------------------------
<CODE> 1 (was CODE)
  Relative segment, address: E21A - E21D (0x4 bytes), align: 1
  Segment part 12.            Intra module refs:   conv_pa_to_meter
           LOCAL                   ADDRESS         
           =====                   =======         
           ?Subroutine7            E21A 
    -------------------------------------------------------------------------
<CODE> 1 (was CODE)
  Relative segment, address: E21E - E225 (0x8 bytes), align: 1
  Segment part 13.            Intra module refs:   ?Subroutine7
                                                   update_pressure_table
    -------------------------------------------------------------------------
<CODE> 1 (was CODE)
  Relative segment, address: DF5A - DF61 (0x8 bytes), align: 1
  Segment part 14.            Intra module refs:   conv_pa_to_meter
           LOCAL                   ADDRESS         
           =====                   =======         
           ?Subroutine5            DF5A 
    -------------------------------------------------------------------------
<CODE> 1 (was CODE)
  Relative segment, address: DF62 - DF69 (0x8 bytes), align: 1
  Segment part 15.            Intra module refs:   ?Subroutine5
                                                   update_pressure_table
    -------------------------------------------------------------------------
<CODE> 1 (was CODE)
  Relative segment, address: 9618 - 9767 (0x150 bytes), align: 1
  Segment part 16.
           ENTRY                   ADDRESS         REF BY
           =====                   =======         ======
           update_pressure_table   9618            mx_altitude (altitude)
                                                   reset_altitude_measurement (altitude)
                                                   simpliciti_sync_decode_ap_cmd_callback (rfsimpliciti)
               calls direct
               CSTACK = 00000000 ( 00000028 )
    -------------------------------------------------------------------------
<CODE> 1 (was CODE)
  Relative segment, address: E302 - E30B (0xa bytes), align: 1
  Segment part 17.            Intra module refs:   conv_pa_to_meter
                                                   update_pressure_table
           LOCAL                   ADDRESS         
           =====                   =======         
           ?Subroutine13           E302 
    -------------------------------------------------------------------------
<CODE> 1 (was CODE)
  Relative segment, address: E24A - E24B (0x2 bytes), align: 1
  Segment part 18.            Intra module refs:   update_pressure_table
           LOCAL                   ADDRESS         
           =====                   =======         
           ?Subroutine12           E24A 
    -------------------------------------------------------------------------
<CODE> 1 (was CODE)
  Relative segment, address: E24C - E255 (0xa bytes), align: 1
  Segment part 19.            Intra module refs:   ?Subroutine11
                                                   ?Subroutine12
                                                   conv_pa_to_meter
           LOCAL                   ADDRESS         
           =====                   =======         
           ?Subroutine22           E24C 
    -------------------------------------------------------------------------
<CODE> 1 (was CODE)
  Relative segment, address: CF56 - CF5B (0x6 bytes), align: 1
  Segment part 20.            Intra module refs:   conv_pa_to_meter
                                                   update_pressure_table
           LOCAL                   ADDRESS         
           =====                   =======         
           ?Subroutine11           CF56 
    -------------------------------------------------------------------------
<CODE> 1 (was CODE)
  Relative segment, address: CF5C - CF61 (0x6 bytes), align: 1
  Segment part 21.            Intra module refs:   ?Subroutine11
                                                   ?Subroutine8
           LOCAL                   ADDRESS         
           =====                   =======         
           ?Subroutine25           CF5C 
    -------------------------------------------------------------------------
<CODE> 1 (was CODE)
  Relative segment, address: CF62 - CF65 (0x4 bytes), align: 1
  Segment part 22.            Intra module refs:   conv_pa_to_meter
                                                   update_pressure_table
           LOCAL                   ADDRESS         
           =====                   =======         
           ?Subroutine10           CF62 
    -------------------------------------------------------------------------
<CODE> 1 (was CODE)
  Relative segment, address: CF66 - CF6B (0x6 bytes), align: 1
  Segment part 23.            Intra module refs:   ?Subroutine10
                                                   conv_pa_to_meter
    -------------------------------------------------------------------------
<CODE> 1 (was CODE)
  Relative segment, address: CF6C - CF75 (0xa bytes), align: 1
  Segment part 24.            Intra module refs:   ?Subroutine0
                                                   Segment part 23
                                                   update_pressure_table
           LOCAL                   ADDRESS         
           =====                   =======         
           ?Subroutine21           CF6C 
    -------------------------------------------------------------------------
<CODE> 1 (was CODE)
  Relative segment, address: CF76 - CF81 (0xc bytes), align: 1
  Segment part 25.            Intra module refs:   conv_pa_to_meter
                                                   update_pressure_table
           LOCAL                   ADDRESS         
           =====                   =======         
           ?Subroutine9            CF76 
    -------------------------------------------------------------------------
<CODE> 1 (was CODE)
  Relative segment, address: CF82 - CF89 (0x8 bytes), align: 1
  Segment part 26.            Intra module refs:   conv_pa_to_meter
                                                   update_pressure_table
           LOCAL                   ADDRESS         
           =====                   =======         
           ?Subroutine8            CF82 
    -------------------------------------------------------------------------
<CODE> 1 (was CODE)
  Relative segment, address: E45A - E45F (0x6 bytes), align: 1
  Segment part 27.            Intra module refs:   conv_pa_to_meter
                                                   update_pressure_table
           LOCAL                   ADDRESS         
           =====                   =======         
           ?Subroutine6            E45A 
    -------------------------------------------------------------------------
<CODE> 1 (was CODE)
  Relative segment, address: DD66 - DD6F (0xa bytes), align: 1
  Segment part 28.            Intra module refs:   ?Subroutine4
                                                   ?Subroutine6
                                                   conv_pa_to_meter
                                                   update_pressure_table
           LOCAL                   ADDRESS         
           =====                   =======         
           ?Subroutine24           DD66 
    -------------------------------------------------------------------------
<CODE> 1 (was CODE)
  Relative segment, address: DD70 - DD79 (0xa bytes), align: 1
  Segment part 29.            Intra module refs:   update_pressure_table
           LOCAL                   ADDRESS         
           =====                   =======         
           ?Subroutine4            DD70 
    -------------------------------------------------------------------------
<CODE> 1 (was CODE)
  Relative segment, address: DDE6 - DDF7 (0x12 bytes), align: 1
  Segment part 30.            Intra module refs:   conv_pa_to_meter
                                                   update_pressure_table
           LOCAL                   ADDRESS         
           =====                   =======         
           ?Subroutine3            DDE6 
    -------------------------------------------------------------------------
<CODE> 1 (was CODE)
  Relative segment, address: E0F8 - E0FB (0x4 bytes), align: 1
  Segment part 31.            Intra module refs:   conv_pa_to_meter
                                                   update_pressure_table
           LOCAL                   ADDRESS         
           =====                   =======         
           ?Subroutine2            E0F8 
    -------------------------------------------------------------------------
<CODE> 1 (was CODE)
  Relative segment, address: E0FC - E105 (0xa bytes), align: 1
  Segment part 32.            Intra module refs:   ?Subroutine2
                                                   conv_pa_to_meter
                                                   update_pressure_table
    -------------------------------------------------------------------------
<CODE> 1 (was CODE)
  Relative segment, address: DA40 - DA5B (0x1c bytes), align: 1
  Segment part 33.            Intra module refs:   conv_pa_to_meter
                                                   update_pressure_table
           LOCAL                   ADDRESS         
           =====                   =======         
           ?Subroutine1            DA40 
    -------------------------------------------------------------------------
<CODE> 1 (was CODE)
  Relative segment, address: DA94 - DAAF (0x1c bytes), align: 1
  Segment part 34.            Intra module refs:   conv_pa_to_meter
                                                   update_pressure_table
           LOCAL                   ADDRESS         
           =====                   =======         
           ?Subroutine0            DA94 
    -------------------------------------------------------------------------
<CODE> 1 (was CODE)
  Relative segment, address: E2AA - E2B5 (0xc bytes), align: 1
  Segment part 35.            Intra module refs:   ?Subroutine0
                                                   ?Subroutine7
           LOCAL                   ADDRESS         
           =====                   =======         
           ?Subroutine20           E2AA 
    -------------------------------------------------------------------------
<CODE> 1 (was CODE)
  Relative segment, address: 8E32 - 8FEB (0x1ba bytes), align: 1
  Segment part 11.
           ENTRY                   ADDRESS         REF BY
           =====                   =======         ======
           conv_pa_to_meter        8E32            do_altitude_measurement (altitude)
               calls direct
               CSTACK = 00000000 ( 00000026 )

    *************************************************************************

  FILE NAME : D:\ALaurent\Temp\git\EZ430-MyChronos\Sports Watch\915MHz - Limited IAR KickStart (USA)\Obj\rfbsl.r43
  PROGRAM MODULE, NAME : rfbsl

  SEGMENTS IN THE MODULE
  ======================
DATA16_Z
  Relative segment, address: 1E6B - 1E6B (0x1 bytes), align: 0
  Segment part 5.             Intra module refs:   display_rfbsl
                                                   sx_rfbsl
           ENTRY                   ADDRESS         REF BY
           =====                   =======         ======
           rfBSL_button_confirmation
                                   1E6B            wakeup_event (main)
    -------------------------------------------------------------------------
<CODE> 1 (was CODE)
  Relative segment, address: C3A2 - C3F3 (0x52 bytes), align: 1
  Segment part 7.
           ENTRY                   ADDRESS         REF BY
           =====                   =======         ======
           sx_rfbsl                C3A2            menu_L2_RFBSL (menu)
               calls direct and indirect
               CSTACK = 00000000 ( 00000004 )
    -------------------------------------------------------------------------
<CODE> 1 (was CODE)
  Relative segment, address: D2F0 - D31D (0x2e bytes), align: 1
  Segment part 6.
           ENTRY                   ADDRESS         REF BY
           =====                   =======         ======
           display_rfbsl           D2F0            menu_L2_RFBSL (menu)
               calls direct
               CSTACK = 00000000 ( 00000004 )
    -------------------------------------------------------------------------
DATA16_C
  Relative segment, address: 8458 - 845E (0x7 bytes), align: 0
  Segment part 2.             Intra module refs:   display_rfbsl
                                                   sx_rfbsl
    -------------------------------------------------------------------------
DATA16_C
  Relative segment, address: 845F - 8463 (0x5 bytes), align: 0
  Segment part 3.             Intra module refs:   sx_rfbsl
    -------------------------------------------------------------------------
DATA16_C
  Relative segment, address: 8464 - 8469 (0x6 bytes), align: 0
  Segment part 4.             Intra module refs:   display_rfbsl

    *************************************************************************

  FILE NAME : D:\ALaurent\Temp\git\EZ430-MyChronos\Sports Watch\915MHz - Limited IAR KickStart (USA)\Obj\rfsimpliciti.r43
  PROGRAM MODULE, NAME : rfsimpliciti

  SEGMENTS IN THE MODULE
  ======================
DATA16_Z
  Relative segment, address: 1D6E - 1D73 (0x6 bytes), align: 1
  Segment part 10.            Intra module refs:   ?Subroutine5
                                                   is_rf
                                                   reset_rf
                                                   simpliciti_get_ed_data_callback
                                                   simpliciti_sync_decode_ap_cmd_callback
                                                   start_simpliciti_sync
                                                   start_simpliciti_tx_only
           ENTRY                   ADDRESS         REF BY
           =====                   =======         ======
           sRFsmpl                 1D6E            TIMER0_A0_ISR (timer)
    -------------------------------------------------------------------------
DATA16_Z
  Relative segment, address: 1E6C - 1E6C (0x1 bytes), align: 0
  Segment part 11.            Intra module refs:   simpliciti_get_ed_data_callback
                                                   simpliciti_sync_decode_ap_cmd_callback
           ENTRY                   ADDRESS         REF BY
           =====                   =======         ======
           simpliciti_flag         1E6C            PORT2_ISR (ports)
                                                   TIMER0_A0_ISR (timer)
                                                   simpliciti_link (main_ED_BM)
                                                   simpliciti_main_sync (main_ED_BM)
                                                   simpliciti_main_tx_only (main_ED_BM)
    -------------------------------------------------------------------------
DATA16_Z
  Relative segment, address: 1E6D - 1E8C (0x20 bytes), align: 0
  Segment part 12.            Intra module refs:   simpliciti_get_ed_data_callback
                                                   simpliciti_sync_decode_ap_cmd_callback
                                                   simpliciti_sync_get_data_callback
                                                   start_simpliciti_tx_only
           ENTRY                   ADDRESS         REF BY
           =====                   =======         ======
           simpliciti_data         1E6D            ?Subroutine2 (main_ED_BM)
                                                   PORT2_ISR (ports)
                                                   simpliciti_main_sync (main_ED_BM)
    -------------------------------------------------------------------------
DATA16_Z
  Relative segment, address: 1E8D - 1E90 (0x4 bytes), align: 0
  Segment part 13.
           ENTRY                   ADDRESS         REF BY
           =====                   =======         ======
           simpliciti_ed_address   1E8D            read_calibration_values (main)
                                                   simpliciti_link (main_ED_BM)
    -------------------------------------------------------------------------
DATA16_Z
  Relative segment, address: 1E91 - 1E91 (0x1 bytes), align: 0
  Segment part 14.            Intra module refs:   reset_rf
           ENTRY                   ADDRESS         REF BY
           =====                   =======         ======
           simpliciti_payload_length
                                   1E91 
    -------------------------------------------------------------------------
DATA16_Z
  Relative segment, address: 1E92 - 1E92 (0x1 bytes), align: 0
  Segment part 15.            Intra module refs:   simpliciti_sync_decode_ap_cmd_callback
           ENTRY                   ADDRESS         REF BY
           =====                   =======         ======
           simpliciti_reply_count
                                   1E92            simpliciti_main_sync (main_ED_BM)
    -------------------------------------------------------------------------
DATA16_Z
  Relative segment, address: 1E93 - 1E93 (0x1 bytes), align: 0
  Segment part 16.            Intra module refs:   simpliciti_sync_decode_ap_cmd_callback
                                                   simpliciti_sync_get_data_callback
           ENTRY                   ADDRESS         REF BY
           =====                   =======         ======
           burst_mode              1E93 
    -------------------------------------------------------------------------
DATA16_Z
  Relative segment, address: 1D74 - 1D75 (0x2 bytes), align: 1
  Segment part 17.            Intra module refs:   simpliciti_sync_decode_ap_cmd_callback
                                                   simpliciti_sync_get_data_callback
           ENTRY                   ADDRESS         REF BY
           =====                   =======         ======
           burst_start             1D74 
    -------------------------------------------------------------------------
DATA16_Z
  Relative segment, address: 1D76 - 1D77 (0x2 bytes), align: 1
  Segment part 18.            Intra module refs:   simpliciti_sync_decode_ap_cmd_callback
           ENTRY                   ADDRESS         REF BY
           =====                   =======         ======
           burst_end               1D76 
    -------------------------------------------------------------------------
DATA16_Z
  Relative segment, address: 1D78 - 1D89 (0x12 bytes), align: 1
  Segment part 19.            Intra module refs:   simpliciti_sync_decode_ap_cmd_callback
                                                   simpliciti_sync_get_data_callback
           ENTRY                   ADDRESS         REF BY
           =====                   =======         ======
           burst_packet            1D78 
    -------------------------------------------------------------------------
<CODE> 1 (was CODE)
  Relative segment, address: E2DA - E2E3 (0xa bytes), align: 1
  Segment part 41.
           ENTRY                   ADDRESS         REF BY
           =====                   =======         ======
           reset_rf                E2DA            init_global_variables (main)
               CSTACK = 00000000 ( 00000004 )
    -------------------------------------------------------------------------
<CODE> 1 (was CODE)
  Relative segment, address: E042 - E04F (0xe bytes), align: 1
  Segment part 39.            Intra module refs:   sx_ppt
                                                   sx_rf
                                                   sx_sync
           LOCAL                   ADDRESS         
           =====                   =======         
           ?Subroutine6            E042 
    -------------------------------------------------------------------------
<CODE> 1 (was CODE)
  Relative segment, address: D7EC - D80B (0x20 bytes), align: 1
  Segment part 40.
           ENTRY                   ADDRESS         REF BY
           =====                   =======         ======
           sx_rf                   D7EC            menu_L2_Rf (menu)
               calls direct
               CSTACK = 00000000 ( 00000004 )
    -------------------------------------------------------------------------
<CODE> 1 (was CODE)
  Relative segment, address: D82C - D84B (0x20 bytes), align: 1
  Segment part 38.
           ENTRY                   ADDRESS         REF BY
           =====                   =======         ======
           sx_ppt                  D82C            menu_L2_Ppt (menu)
               calls direct
               CSTACK = 00000000 ( 00000004 )
    -------------------------------------------------------------------------
<CODE> 1 (was CODE)
  Relative segment, address: D88C - D8A9 (0x1e bytes), align: 1
  Segment part 37.
           ENTRY                   ADDRESS         REF BY
           =====                   =======         ======
           sx_sync                 D88C            menu_L2_Sync (menu)
               calls direct
               CSTACK = 00000000 ( 00000004 )
    -------------------------------------------------------------------------
<CODE> 1 (was CODE)
  Relative segment, address: BD40 - BDB1 (0x72 bytes), align: 1
  Segment part 31.            Intra module refs:   sx_ppt
                                                   sx_rf
           ENTRY                   ADDRESS         REF BY
           =====                   =======         ======
           start_simpliciti_tx_only
                                   BD40 
               calls direct and indirect
               CSTACK = 00000000 ( 00000006 )
    -------------------------------------------------------------------------
<CODE> 1 (was CODE)
  Relative segment, address: E0C0 - E0CD (0xe bytes), align: 1
  Segment part 32.            Intra module refs:   start_simpliciti_sync
                                                   start_simpliciti_tx_only
           LOCAL                   ADDRESS         
           =====                   =======         
           ?Subroutine5            E0C0 
    -------------------------------------------------------------------------
<CODE> 1 (was CODE)
  Relative segment, address: D424 - D44D (0x2a bytes), align: 1
  Segment part 33.            Intra module refs:   start_simpliciti_sync
                                                   start_simpliciti_tx_only
           LOCAL                   ADDRESS         
           =====                   =======         
           ?Subroutine4            D424 
    -------------------------------------------------------------------------
<CODE> 1 (was CODE)
  Relative segment, address: D088 - D0B9 (0x32 bytes), align: 1
  Segment part 34.            Intra module refs:   start_simpliciti_sync
                                                   start_simpliciti_tx_only
           LOCAL                   ADDRESS         
           =====                   =======         
           ?Subroutine3            D088 
    -------------------------------------------------------------------------
<CODE> 1 (was CODE)
  Relative segment, address: E018 - E025 (0xe bytes), align: 1
  Segment part 35.            Intra module refs:   start_simpliciti_sync
                                                   start_simpliciti_tx_only
           LOCAL                   ADDRESS         
           =====                   =======         
           ?Subroutine2            E018 
    -------------------------------------------------------------------------
<CODE> 1 (was CODE)
  Relative segment, address: E050 - E05D (0xe bytes), align: 1
  Segment part 36.            Intra module refs:   start_simpliciti_sync
                                                   start_simpliciti_tx_only
           LOCAL                   ADDRESS         
           =====                   =======         
           ?Subroutine1            E050 
    -------------------------------------------------------------------------
<CODE> 1 (was CODE)
  Relative segment, address: E3EC - E3F3 (0x8 bytes), align: 1
  Segment part 29.            Intra module refs:   display_ppt
                                                   display_rf
                                                   display_sync
                                                   simpliciti_sync_decode_ap_cmd_callback
           LOCAL                   ADDRESS         
           =====                   =======         
           ?Subroutine0            E3EC 
    -------------------------------------------------------------------------
<CODE> 1 (was CODE)
  Relative segment, address: DF2A - DF39 (0x10 bytes), align: 1
  Segment part 30.
           ENTRY                   ADDRESS         REF BY
           =====                   =======         ======
           display_rf              DF2A            menu_L2_Rf (menu)
               calls direct
               CSTACK = 00000000 ( 00000004 )
    -------------------------------------------------------------------------
<CODE> 1 (was CODE)
  Relative segment, address: DF3A - DF49 (0x10 bytes), align: 1
  Segment part 28.
           ENTRY                   ADDRESS         REF BY
           =====                   =======         ======
           display_ppt             DF3A            menu_L2_Ppt (menu)
               calls direct
               CSTACK = 00000000 ( 00000004 )
    -------------------------------------------------------------------------
<CODE> 1 (was CODE)
  Relative segment, address: DF7A - DF89 (0x10 bytes), align: 1
  Segment part 27.
           ENTRY                   ADDRESS         REF BY
           =====                   =======         ======
           display_sync            DF7A            menu_L2_Sync (menu)
               calls direct
               CSTACK = 00000000 ( 00000004 )
    -------------------------------------------------------------------------
<CODE> 1 (was CODE)
  Relative segment, address: E0A4 - E0B1 (0xe bytes), align: 1
  Segment part 26.
           ENTRY                   ADDRESS         REF BY
           =====                   =======         ======
           is_rf                   E0A4            PORT2_ISR (ports)
                                                   TIMER0_A0_ISR (timer)
                                                   radio_ISR (radio)
                                                   sx_rfbsl (rfbsl)
               CSTACK = 00000000 ( 00000004 )
    -------------------------------------------------------------------------
<CODE> 1 (was CODE)
  Relative segment, address: B190 - B231 (0xa2 bytes), align: 1
  Segment part 25.
           ENTRY                   ADDRESS         REF BY
           =====                   =======         ======
           simpliciti_get_ed_data_callback
                                   B190            simpliciti_main_tx_only (main_ED_BM)
               calls direct
               CSTACK = 00000000 ( 00000004 )
    -------------------------------------------------------------------------
DATA16_Z
  Relative segment, address: 1E94 - 1E94 (0x1 bytes), align: 0
  Segment part 21.            Intra module refs:   simpliciti_get_ed_data_callback
           LOCAL                   ADDRESS         
           =====                   =======         
           simpliciti_get_ed_data_callback::packet_counter
                                   1E94 
    -------------------------------------------------------------------------
<CODE> 1 (was CODE)
  Relative segment, address: CD98 - CDCF (0x38 bytes), align: 1
  Segment part 24.            Intra module refs:   sx_sync
           ENTRY                   ADDRESS         REF BY
           =====                   =======         ======
           start_simpliciti_sync   CD98 
               calls direct and indirect
               CSTACK = 00000000 ( 00000004 )
    -------------------------------------------------------------------------
<CODE> 1 (was CODE)
  Relative segment, address: 9768 - 98AF (0x148 bytes), align: 1
  Segment part 23.
           ENTRY                   ADDRESS         REF BY
           =====                   =======         ======
           simpliciti_sync_decode_ap_cmd_callback
                                   9768            simpliciti_main_sync (main_ED_BM)
               calls direct
               CSTACK = 00000000 ( 00000006 )
    -------------------------------------------------------------------------
<CODE> 1 (was CODE)
  Relative segment, address: AB12 - ABDD (0xcc bytes), align: 1
  Segment part 22.
           ENTRY                   ADDRESS         REF BY
           =====                   =======         ======
           simpliciti_sync_get_data_callback
                                   AB12            simpliciti_main_sync (main_ED_BM)
               CSTACK = 00000000 ( 00000004 )
    -------------------------------------------------------------------------
DATA16_C
  Relative segment, address: 846A - 8470 (0x7 bytes), align: 0
  Segment part 6.             Intra module refs:   display_rf
    -------------------------------------------------------------------------
DATA16_C
  Relative segment, address: 8471 - 8477 (0x7 bytes), align: 0
  Segment part 7.             Intra module refs:   display_ppt
    -------------------------------------------------------------------------
DATA16_C
  Relative segment, address: 8478 - 847E (0x7 bytes), align: 0
  Segment part 8.             Intra module refs:   display_sync
    -------------------------------------------------------------------------
DATA16_C
  Relative segment, address: 847F - 8485 (0x7 bytes), align: 0
  Segment part 9.             Intra module refs:   simpliciti_sync_decode_ap_cmd_callback

    *************************************************************************

  FILE NAME : D:\ALaurent\Temp\git\EZ430-MyChronos\Sports Watch\915MHz - Limited IAR KickStart (USA)\Obj\stopwatch.r43
  PROGRAM MODULE, NAME : stopwatch

  SEGMENTS IN THE MODULE
  ======================
DATA16_AN
  Relative segment, address: 0346 - 0347 (0x2 bytes), align: 0
  Segment part 1. ROOT.       Intra module refs:   TIMER0_A1_5_ISR (timer)
                                                   start_stopwatch
                                                   stop_stopwatch
           ENTRY                   ADDRESS         REF BY
           =====                   =======         ======
           TA0CCTL2                0346 
    -------------------------------------------------------------------------
DATA16_AN
  Relative segment, address: 0350 - 0351 (0x2 bytes), align: 0
  Segment part 2. ROOT.       Intra module refs:   TIMER0_A1_5_ISR (timer)
                                                   Timer0_A3_Start (timer)
                                                   Timer0_A4_Delay (timer)
                                                   Timer0_Stop (timer)
                                                   start_stopwatch
           ENTRY                   ADDRESS         REF BY
           =====                   =======         ======
           TA0R                    0350 
    -------------------------------------------------------------------------
DATA16_AN
  Relative segment, address: 0356 - 0357 (0x2 bytes), align: 0
  Segment part 3. ROOT.       Intra module refs:   start_stopwatch
                                                   update_stopwatch_timer
           ENTRY                   ADDRESS         REF BY
           =====                   =======         ======
           TA0CCR2                 0356 
    -------------------------------------------------------------------------
DATA16_Z
  Relative segment, address: 1E95 - 1EA1 (0xd bytes), align: 0
  Segment part 6.             Intra module refs:   display_stopwatch
                                                   is_stopwatch
                                                   reset_stopwatch
                                                   start_stopwatch
                                                   stop_stopwatch
                                                   stopwatch_tick
                                                   sx_stopwatch
                                                   update_stopwatch_timer
           ENTRY                   ADDRESS         REF BY
           =====                   =======         ======
           sStopwatch              1E95            set_value (user)
    -------------------------------------------------------------------------
<CODE> 1 (was CODE)
  Relative segment, address: CDD0 - CE07 (0x38 bytes), align: 1
  Segment part 16.            Intra module refs:   start_stopwatch
           ENTRY                   ADDRESS         REF BY
           =====                   =======         ======
           update_stopwatch_timer
                                   CDD0            TIMER0_A1_5_ISR (timer)
               CSTACK = 00000000 ( 00000004 )
    -------------------------------------------------------------------------
<CODE> 1 (was CODE)
  Relative segment, address: A5E8 - A6D1 (0xea bytes), align: 1
  Segment part 15.
           ENTRY                   ADDRESS         REF BY
           =====                   =======         ======
           stopwatch_tick          A5E8            TIMER0_A1_5_ISR (timer)
               calls direct
               CSTACK = 00000000 ( 00000004 )
    -------------------------------------------------------------------------
DATA16_Z
  Relative segment, address: 1EA2 - 1EA2 (0x1 bytes), align: 0
  Segment part 7.             Intra module refs:   stopwatch_tick
           LOCAL                   ADDRESS         
           =====                   =======         
           stopwatch_tick::delay   1EA2 
    -------------------------------------------------------------------------
<CODE> 1 (was CODE)
  Relative segment, address: D84C - D86B (0x20 bytes), align: 1
  Segment part 14.            Intra module refs:   mx_stopwatch
                                                   stopwatch_tick
           ENTRY                   ADDRESS         REF BY
           =====                   =======         ======
           reset_stopwatch         D84C            init_global_variables (main)
               calls direct
               CSTACK = 00000000 ( 00000004 )
    -------------------------------------------------------------------------
<CODE> 1 (was CODE)
  Relative segment, address: DB50 - DB69 (0x1a bytes), align: 1
  Segment part 13.
           ENTRY                   ADDRESS         REF BY
           =====                   =======         ======
           is_stopwatch            DB50            PORT2_ISR (ports)
                                                   Timer0_A4_Delay (timer)
               CSTACK = 00000000 ( 00000004 )
    -------------------------------------------------------------------------
<CODE> 1 (was CODE)
  Relative segment, address: D786 - D7A7 (0x22 bytes), align: 1
  Segment part 12.            Intra module refs:   sx_stopwatch
           ENTRY                   ADDRESS         REF BY
           =====                   =======         ======
           start_stopwatch         D786 
               calls direct
               CSTACK = 00000000 ( 00000004 )
    -------------------------------------------------------------------------
<CODE> 1 (was CODE)
  Relative segment, address: D9D0 - D9EB (0x1c bytes), align: 1
  Segment part 11.            Intra module refs:   mx_stopwatch
                                                   sx_stopwatch
           ENTRY                   ADDRESS         REF BY
           =====                   =======         ======
           stop_stopwatch          D9D0            PORT2_ISR (ports)
               calls direct
               CSTACK = 00000000 ( 00000004 )
    -------------------------------------------------------------------------
<CODE> 1 (was CODE)
  Relative segment, address: DBFA - DC11 (0x18 bytes), align: 1
  Segment part 10.
           ENTRY                   ADDRESS         REF BY
           =====                   =======         ======
           mx_stopwatch            DBFA            menu_L2_Stopwatch (menu)
               calls direct
               CSTACK = 00000000 ( 00000006 )
    -------------------------------------------------------------------------
<CODE> 1 (was CODE)
  Relative segment, address: DC40 - DC55 (0x16 bytes), align: 1
  Segment part 9.
           ENTRY                   ADDRESS         REF BY
           =====                   =======         ======
           sx_stopwatch            DC40            menu_L2_Stopwatch (menu)
               calls direct
               CSTACK = 00000000 ( 00000004 )
    -------------------------------------------------------------------------
<CODE> 1 (was CODE)
  Relative segment, address: 9EBA - 9FDD (0x124 bytes), align: 1
  Segment part 8.             Intra module refs:   mx_stopwatch
                                                   stop_stopwatch
                                                   stopwatch_tick
           ENTRY                   ADDRESS         REF BY
           =====                   =======         ======
           display_stopwatch       9EBA            Timer0_A4_Delay (timer)
                                                   menu_L2_Stopwatch (menu)
               calls direct
               CSTACK = 00000000 ( 00000004 )
    -------------------------------------------------------------------------
DATA16_C
  Relative segment, address: 8486 - 848E (0x9 bytes), align: 0
  Segment part 5.             Intra module refs:   reset_stopwatch

    *************************************************************************

  FILE NAME : D:\ALaurent\Temp\git\EZ430-MyChronos\Sports Watch\915MHz - Limited IAR KickStart (USA)\Obj\temperature.r43
  PROGRAM MODULE, NAME : temperature

  SEGMENTS IN THE MODULE
  ======================
DATA16_Z
  Relative segment, address: 1D8A - 1D8F (0x6 bytes), align: 1
  Segment part 2.             Intra module refs:   ?Subroutine1
                                                   display_temperature
                                                   is_temp_measurement
                                                   mx_temperature
                                                   reset_temp_measurement
                                                   temperature_measurement
           ENTRY                   ADDRESS         REF BY
           =====                   =======         ======
           sTemp                   1D8A            read_calibration_values (main)
                                                   simpliciti_sync_decode_ap_cmd_callback (rfsimpliciti)
                                                   simpliciti_sync_get_data_callback (rfsimpliciti)
    -------------------------------------------------------------------------
<CODE> 1 (was CODE)
  Relative segment, address: E3CA - E3D3 (0xa bytes), align: 1
  Segment part 14.
           ENTRY                   ADDRESS         REF BY
           =====                   =======         ======
           reset_temp_measurement
                                   E3CA            init_global_variables (main)
               calls direct
               CSTACK = 00000000 ( 00000004 )
    -------------------------------------------------------------------------
<CODE> 1 (was CODE)
  Relative segment, address: B53A - B5D1 (0x98 bytes), align: 1
  Segment part 13.            Intra module refs:   display_temperature
                                                   reset_temp_measurement
           ENTRY                   ADDRESS         REF BY
           =====                   =======         ======
           temperature_measurement
                                   B53A            process_requests (main)
                                                   start_simpliciti_sync (rfsimpliciti)
               calls direct
               CSTACK = 00000000 ( 0000000A )
    -------------------------------------------------------------------------
<CODE> 1 (was CODE)
  Relative segment, address: D5B8 - D5DD (0x26 bytes), align: 1
  Segment part 12.            Intra module refs:   display_temperature
                                                   mx_temperature
           ENTRY                   ADDRESS         REF BY
           =====                   =======         ======
           convert_C_to_F          D5B8 
               CSTACK = 00000000 ( 00000004 )
    -------------------------------------------------------------------------
<CODE> 1 (was CODE)
  Relative segment, address: DEE2 - DEF3 (0x12 bytes), align: 1
  Segment part 11.            Intra module refs:   mx_temperature
           ENTRY                   ADDRESS         REF BY
           =====                   =======         ======
           convert_F_to_C          DEE2 
               CSTACK = 00000000 ( 00000004 )
    -------------------------------------------------------------------------
<CODE> 1 (was CODE)
  Relative segment, address: E088 - E095 (0xe bytes), align: 1
  Segment part 10.
           ENTRY                   ADDRESS         REF BY
           =====                   =======         ======
           is_temp_measurement     E088            TIMER0_A0_ISR (timer)
               CSTACK = 00000000 ( 00000004 )
    -------------------------------------------------------------------------
<CODE> 1 (was CODE)
  Relative segment, address: A970 - AA41 (0xd2 bytes), align: 1
  Segment part 6.
           ENTRY                   ADDRESS         REF BY
           =====                   =======         ======
           mx_temperature          A970            menu_L1_Temperature (menu)
               calls direct
               CSTACK = 00000000 ( 0000001C )
    -------------------------------------------------------------------------
<CODE> 1 (was CODE)
  Relative segment, address: E202 - E205 (0x4 bytes), align: 1
  Segment part 7.             Intra module refs:   display_temperature
                                                   mx_temperature
           LOCAL                   ADDRESS         
           =====                   =======         
           ?Subroutine1            E202 
    -------------------------------------------------------------------------
<CODE> 1 (was CODE)
  Relative segment, address: E206 - E20D (0x8 bytes), align: 1
  Segment part 8.             Intra module refs:   ?Subroutine1
                                                   display_temperature
                                                   mx_temperature
    -------------------------------------------------------------------------
<CODE> 1 (was CODE)
  Relative segment, address: DD52 - DD65 (0x14 bytes), align: 1
  Segment part 9.             Intra module refs:   display_temperature
                                                   mx_temperature
           LOCAL                   ADDRESS         
           =====                   =======         
           ?Subroutine0            DD52 
    -------------------------------------------------------------------------
<CODE> 1 (was CODE)
  Relative segment, address: AEE4 - AF9D (0xba bytes), align: 1
  Segment part 3.
           ENTRY                   ADDRESS         REF BY
           =====                   =======         ======
           display_temperature     AEE4            menu_L1_Temperature (menu)
               calls direct
               CSTACK = 00000000 ( 00000008 )
    -------------------------------------------------------------------------
<CODE> 1 (was CODE)
  Relative segment, address: E434 - E435 (0x2 bytes), align: 1
  Segment part 4.             Intra module refs:   display_temperature
           LOCAL                   ADDRESS         
           =====                   =======         
           ?Subroutine2            E434 
    -------------------------------------------------------------------------
<CODE> 1 (was CODE)
  Relative segment, address: E436 - E43B (0x6 bytes), align: 1
  Segment part 5.             Intra module refs:   ?Subroutine2
                                                   display_temperature

    *************************************************************************

  FILE NAME : D:\ALaurent\Temp\git\EZ430-MyChronos\Sports Watch\915MHz - Limited IAR KickStart (USA)\Obj\user.r43
  PROGRAM MODULE, NAME : user

  SEGMENTS IN THE MODULE
  ======================
<CODE> 1 (was CODE)
  Relative segment, address: E4B8 - E4B9 (0x2 bytes), align: 1
  Segment part 5.
           ENTRY                   ADDRESS         REF BY
           =====                   =======         ======
           dummy                   E4B8            menu_L1_Acceleration (menu)
                                                   menu_L1_Temperature (menu)
                                                   menu_L2_Battery (menu)
                                                   menu_L2_Ppt (menu)
                                                   menu_L2_RFBSL (menu)
                                                   menu_L2_Rf (menu)
                                                   menu_L2_Sync (menu)
               CSTACK = 00000000 ( 00000004 )
    -------------------------------------------------------------------------
<CODE> 1 (was CODE)
  Relative segment, address: 8A80 - 8C5D (0x1de bytes), align: 1
  Segment part 2.
           ENTRY                   ADDRESS         REF BY
           =====                   =======         ======
           set_value               8A80            mx_alarm (alarm)
                                                   mx_altitude (altitude)
                                                   mx_date (date)
                                                   mx_temperature (temperature)
                                                   mx_time (clock)
               calls direct and indirect
               CSTACK = 00000000 ( 0000001E )
    -------------------------------------------------------------------------
<CODE> 1 (was CODE)
  Relative segment, address: E384 - E38D (0xa bytes), align: 1
  Segment part 3.             Intra module refs:   set_value
           LOCAL                   ADDRESS         
           =====                   =======         
           ?Subroutine1            E384 
    -------------------------------------------------------------------------
<CODE> 1 (was CODE)
  Relative segment, address: DF8A - DF99 (0x10 bytes), align: 1
  Segment part 4.             Intra module refs:   set_value
           LOCAL                   ADDRESS         
           =====                   =======         
           ?Subroutine0            DF8A 

    *************************************************************************

  FILE NAME : D:\ALaurent\eZ430\dev\IAR Embedded Workbench 6.5\430\LIB\DLIB\dl430xsfn.r43
  LIBRARY MODULE, NAME : ?__dbg_break

  SEGMENTS IN THE MODULE
  ======================
<CODE> 1 (was CODE)
  Relative segment, address: E4B6 - E4B7 (0x2 bytes), align: 1
  Segment part 2.
           ENTRY                   ADDRESS         REF BY
           =====                   =======         ======
           __DebugBreak            E4B6            __exit (?__exit)

    -------------------------------------------------------------------------
  LIBRARY MODULE, NAME : ?__exit

  SEGMENTS IN THE MODULE
  ======================
<CODE> 1 (was CODE)
  Relative segment, address: DBCA - DBE1 (0x18 bytes), align: 1
  Segment part 2.
           ENTRY                   ADDRESS         REF BY
           =====                   =======         ======
           __exit                  DBCA            Segment part 6 (?_exit)
                                                   _exit (?_exit)
               calls direct

    -------------------------------------------------------------------------
  LIBRARY MODULE, NAME : ?_exit

  SEGMENTS IN THE MODULE
  ======================
<CODE> 1 (was CODE)
  Relative segment, address: E47E, align: 1
  Segment part 0.
           ENTRY                   ADDRESS         REF BY
           =====                   =======         ======
           _exit                   E47E            exit (?exit)
    -------------------------------------------------------------------------
<CODE> 1 (was CODE)
  Relative segment, address: E47E - E481 (0x4 bytes), align: 1
  Segment part 6.             Intra module refs:   _exit

    -------------------------------------------------------------------------
  LIBRARY MODULE, NAME : ?cstart

  SEGMENTS IN THE MODULE
  ======================
CSTACK
  Relative segment, address: 2BAE, align: 1
  Segment part 1.
    -------------------------------------------------------------------------
DATA16_Z
  Relative segment, address: 1D90, align: 1
  Segment part 2.
    -------------------------------------------------------------------------
DATA16_I
  Relative segment, address: 1C54, align: 1
  Segment part 3.
    -------------------------------------------------------------------------
DATA16_ID
  Relative segment, address: 84E4, align: 1
  Segment part 4.
    -------------------------------------------------------------------------
CSTART
  Relative segment, address: 8508 - 850B (0x4 bytes), align: 1
  Segment part 12.
           ENTRY                   ADDRESS         REF BY
           =====                   =======         ======
           __program_start         8508            ?reset_vector (?reset_vector)
                                                   Absolute parts (?ABS_ENTRY_MOD)
           ?cstart_begin           8508 
    -------------------------------------------------------------------------
CSTART
  Relative segment, address: 850C - 8513 (0x8 bytes), align: 1
  Segment part 13.
           ENTRY                   ADDRESS         REF BY
           =====                   =======         ======
           ?cstart_call_low_level_init
                                   850C            __low_level_init (bsp)
    -------------------------------------------------------------------------
CSTART
  Relative segment, address: 8514 - 851F (0xc bytes), align: 1
  Segment part 15.
           ENTRY                   ADDRESS         REF BY
           =====                   =======         ======
           ?cstart_init_zero       8514            PORT2_ISR::simpliciti_button_repeat (ports)
                                                   TIMER0_A0_ISR::button_lock_counter (timer)
                                                   adc12_data_ready (adc12)
                                                   adc12_result (adc12)
                                                   as_ok (as)
                                                   bmp_cal_param (bmp_ps)
                                                   bmp_param_b5 (bmp_ps)
                                                   bmp_used (main)
                                                   burst_end (rfsimpliciti)
                                                   burst_mode (rfsimpliciti)
                                                   burst_packet (rfsimpliciti)
                                                   burst_start (rfsimpliciti)
                                                   button (ports)
                                                   chronos_black (main)
                                                   crcFail (mrfi)
                                                   crcPass (mrfi)
                                                   display (display)
                                                   fptr_Timer0_A3_function (timer)
                                                   fptr_lcd_function_line1 (main)
                                                   fptr_lcd_function_line2 (main)
                                                   int_to_array_str (display)
                                                   message (main)
                                                   mrfiIncomingPacket (mrfi)
                                                   mrfiRadioState (mrfi)
                                                   mrfiRndSeed (mrfi)
                                                   mrfiRxFilterEnabled (mrfi)
                                                   noFrame (mrfi)
                                                   p (ps)
                                                   ps_ok (ps)
                                                   ptrMenu_L1 (menu)
                                                   ptrMenu_L2 (menu)
                                                   request (main)
                                                   rfBSL_button_confirmation (rfbsl)
                                                   rf_frequoffset (main)
                                                   sAPAddress (nwk_globals)
                                                   sAccel (acceleration)
                                                   sAlarm (alarm)
                                                   sAlt (altitude)
                                                   sBackoffHelper (mrfi)
                                                   sBatt (battery)
                                                   sBlueRobin (bluerobin_stubs)
                                                   sButton (ports)
                                                   sBuzzer (buzzer)
                                                   sDate (date)
                                                   sInFrameQ (nwk_QMgmt)
                                                   sInit_done (nwk_api)
                                                   sJoinToken (nwk_join)
                                                   sKillSem (mrfi)
                                                   sLinkID1 (main_ED_BM)
                                                   sLinkToken (nwk_link)
                                                   sListenActive (nwk_link)
                                                   sMyAddr (nwk_frame)
                                                   sMyRAMAddress (nwk_globals)
                                                   sMyRxType (nwk_frame)
                                                   sMyTxType (nwk_frame)
                                                   sNumLinkers (nwk_link)
                                                   sOutFrameQ (nwk_QMgmt)
                                                   sRAMAddressIsSet (nwk_globals)
                                                   sRFsmpl (rfsimpliciti)
                                                   sReplyDelayContext (mrfi)
                                                   sReplyDelayScalar (mrfi)
                                                   sServiceLinkID (nwk_link)
                                                   sStopwatch (stopwatch)
                                                   sTRACTID (nwk_frame)
                                                   sTemp (temperature)
                                                   sTid (nwk_join)
                                                   sTid (nwk_link)
                                                   sTid (nwk_mgmt)
                                                   sTid (nwk_ping)
                                                   sTime (clock)
                                                   sTimer (timer)
                                                   simpliciti_data (rfsimpliciti)
                                                   simpliciti_ed_address (rfsimpliciti)
                                                   simpliciti_flag (rfsimpliciti)
                                                   simpliciti_get_ed_data_callback::packet_counter (rfsimpliciti)
                                                   simpliciti_payload_length (rfsimpliciti)
                                                   simpliciti_reply_count (rfsimpliciti)
                                                   spCallback (nwk_frame)
                                                   spCallback (nwk_join)
                                                   stopwatch_tick::delay (stopwatch)
                                                   sys (main)
    -------------------------------------------------------------------------
CSTART
  Relative segment, address: 8520 - 852F (0x10 bytes), align: 1
  Segment part 16.
           ENTRY                   ADDRESS         REF BY
           =====                   =======         ======
           ?cstart_init_copy       8520            button_repeat_function::start_delay (ports)
                                                   method (mrfi)
                                                   mrfiRxFilterAddr (mrfi)
                                                   sPersistInfo (nwk)
                                                   segments_lcdmem (display)
    -------------------------------------------------------------------------
CSTART
  Relative segment, address: 8530 - 8537 (0x8 bytes), align: 1
  Segment part 22.            Intra module refs:   ?cstart_call_low_level_init
                                                   Segment part 12
           ENTRY                   ADDRESS         REF BY
           =====                   =======         ======
           ?cstart_call_main       8530 
           ?cstart_end             8538 

    -------------------------------------------------------------------------
  LIBRARY MODULE, NAME : ?reset_vector

  SEGMENTS IN THE MODULE
  ======================
RESET
  Relative segment, address: FFFE - FFFF (0x2 bytes), align: 1
  Segment part 0.
           ENTRY                   ADDRESS         REF BY
           =====                   =======         ======
           ?reset_vector           FFFE            Segment part 12 (?cstart)

    -------------------------------------------------------------------------
  LIBRARY MODULE, NAME : ?exit

  SEGMENTS IN THE MODULE
  ======================
<CODE> 1 (was CODE)
  Relative segment, address: E476 - E479 (0x4 bytes), align: 1
  Segment part 2.
           ENTRY                   ADDRESS         REF BY
           =====                   =======         ======
           exit                    E476            Segment part 22 (?cstart)
               calls direct
               CSTACK = 00000000 ( 00000004 )

    -------------------------------------------------------------------------
  LIBRARY MODULE, NAME : ?Cast32f32i

  SEGMENTS IN THE MODULE
  ======================
<CODE> 1 (was CODE)
  Relative segment, address: B794 - B825 (0x92 bytes), align: 1
  Segment part 0.
           ENTRY                   ADDRESS         REF BY
           =====                   =======         ======
           _Cast32sto32f           B794            ?Subroutine22 (ps)
           _Cast32uto32f           B7A8            ?Subroutine3 (ps)
                                                   ?Subroutine4 (ps)
                                                   conv_pa_to_meter (ps)
                                                   display_acceleration (acceleration)
                                                   do_altitude_measurement (altitude)
                                                   init_pressure_table (ps)
                                                   update_pressure_table (ps)

    -------------------------------------------------------------------------
  LIBRARY MODULE, NAME : _Cast32fto32u

  SEGMENTS IN THE MODULE
  ======================
<CODE> 1 (was CODE)
  Relative segment, address: E27A - E285 (0xc bytes), align: 1
  Segment part 0.
           ENTRY                   ADDRESS         REF BY
           =====                   =======         ======
           _Cast32fto32u           E27A            conv_pa_to_meter (ps)
                                                   display_acceleration (acceleration)
                                                   do_altitude_measurement (altitude)

    -------------------------------------------------------------------------
  LIBRARY MODULE, NAME : ?FLT_Extract

  SEGMENTS IN THE MODULE
  ======================
<CODE> 1 (was CODE)
  Relative segment, address: C5D8 - C623 (0x4c bytes), align: 1
  Segment part 0.
           ENTRY                   ADDRESS         REF BY
           =====                   =======         ======
           ?FLT_Extract            C5D8            _Cast32fto32u (_Cast32fto32u)

    -------------------------------------------------------------------------
  LIBRARY MODULE, NAME : ?FLT_LT

  SEGMENTS IN THE MODULE
  ======================
<CODE> 1 (was CODE)
  Relative segment, address: C498 - C4E9 (0x52 bytes), align: 1
  Segment part 0.
           ENTRY                   ADDRESS         REF BY
           =====                   =======         ======
           ?FLT_LT                 C498            _CmpLt32f (_CmpLt32f)

    -------------------------------------------------------------------------
  LIBRARY MODULE, NAME : _CmpLt32f

  SEGMENTS IN THE MODULE
  ======================
<CODE> 1 (was CODE)
  Relative segment, address: E352 - E35B (0xa bytes), align: 1
  Segment part 0.
           ENTRY                   ADDRESS         REF BY
           =====                   =======         ======
           _CmpLt32f               E352            conv_pa_to_meter (ps)
                                                   update_pressure_table (ps)

    -------------------------------------------------------------------------
  LIBRARY MODULE, NAME : _Mul32f

  SEGMENTS IN THE MODULE
  ======================
<CODE> 1 (was CODE)
  Relative segment, address: A102 - A211 (0x110 bytes), align: 1
  Segment part 0.
           ENTRY                   ADDRESS         REF BY
           =====                   =======         ======
           _Mul32f                 A102            ?Subroutine0 (ps)
                                                   ?Subroutine1 (ps)
                                                   ?Subroutine9 (ps)
                                                   Segment part 15 (ps)
                                                   conv_pa_to_meter (ps)
                                                   display_acceleration (acceleration)
                                                   do_altitude_measurement (altitude)
                                                   update_pressure_table (ps)

    -------------------------------------------------------------------------
  LIBRARY MODULE, NAME : _Div32f

  SEGMENTS IN THE MODULE
  ======================
<CODE> 1 (was CODE)
  Relative segment, address: 9B2C - 9C5B (0x130 bytes), align: 1
  Segment part 0.
           ENTRY                   ADDRESS         REF BY
           =====                   =======         ======
           _Div32f                 9B2C            ?Subroutine2 (ps)
                                                   ?Subroutine3 (ps)
                                                   Segment part 13 (ps)
                                                   conv_pa_to_meter (ps)
                                                   update_pressure_table (ps)

    -------------------------------------------------------------------------
  LIBRARY MODULE, NAME : _Add32f

  SEGMENTS IN THE MODULE
  ======================
<CODE> 1 (was CODE)
  Relative segment, address: 94B6 - 9617 (0x162 bytes), align: 1
  Segment part 0.
           ENTRY                   ADDRESS         REF BY
           =====                   =======         ======
           _Add32f                 94BA            ?Subroutine0 (ps)
                                                   conv_pa_to_meter (ps)
                                                   display_acceleration (acceleration)
                                                   do_altitude_measurement (altitude)
                                                   update_pressure_table (ps)
           _Sub32f                 94B6            ?Subroutine20 (ps)
                                                   ?Subroutine8 (ps)
                                                   conv_pa_to_meter (ps)
                                                   update_pressure_table (ps)

    -------------------------------------------------------------------------
  LIBRARY MODULE, NAME : ?Mul816

  SEGMENTS IN THE MODULE
  ======================
<CODE> 1 (was CODE)
  Relative segment, address: CFF2 - D023 (0x32 bytes), align: 1
  Segment part 0.
           ENTRY                   ADDRESS         REF BY
           =====                   =======         ======
           ?Mul8                   CFF2            MRFI_RandomByte (mrfi)
           ?Mul16                  CFF6            convert_acceleration_value_to_mgrav (acceleration)
           ?Mul16to32u             CFF6 

    -------------------------------------------------------------------------
  LIBRARY MODULE, NAME : ?Mul32

  SEGMENTS IN THE MODULE
  ======================
<CODE> 1 (was CODE)
  Relative segment, address: D294 - D2C1 (0x2e bytes), align: 1
  Segment part 0.
           ENTRY                   ADDRESS         REF BY
           =====                   =======         ======
           ?Mul32                  D294            ?Subroutine1 (bmp_ps)
                                                   ?Subroutine2 (bmp_ps)
                                                   bmp_ps_get_pa (bmp_ps)
                                                   bmp_ps_get_temp (bmp_ps)
                                                   convert_ft_to_m (altitude)
                                                   convert_m_to_ft (altitude)
                                                   temperature_measurement (temperature)

    -------------------------------------------------------------------------
  LIBRARY MODULE, NAME : ?DivMod816u

  SEGMENTS IN THE MODULE
  ======================
<CODE> 1 (was CODE)
  Relative segment, address: D998 - D9B3 (0x1c bytes), align: 1
  Segment part 0.
           ENTRY                   ADDRESS         REF BY
           =====                   =======         ======
           ?DivMod8u               D998 
           ?DivMod16u              D99C            Segment part 0 (?DivMod816s)
                                                   battery_measurement (battery)
                                                   display_acceleration (acceleration)
                                                   get_numberOfDays (date)

    -------------------------------------------------------------------------
  LIBRARY MODULE, NAME : ?DivMod816s

  SEGMENTS IN THE MODULE
  ======================
<CODE> 1 (was CODE)
  Relative segment, address: CFBE - CFF1 (0x34 bytes), align: 1
  Segment part 0.
           ENTRY                   ADDRESS         REF BY
           =====                   =======         ======
           ?DivMod8s               CFBE 
           ?DivMod16s              CFC2            Mrfi_CalculateRssi (mrfi)
                                                   convert_C_to_F (temperature)
                                                   convert_F_to_C (temperature)

    -------------------------------------------------------------------------
  LIBRARY MODULE, NAME : ?DivMod32u

  SEGMENTS IN THE MODULE
  ======================
<CODE> 1 (was CODE)
  Relative segment, address: CEB0 - CEE7 (0x38 bytes), align: 1
  Segment part 0.
           ENTRY                   ADDRESS         REF BY
           =====                   =======         ======
           ?DivMod32u              CEB0            ?DivMod32s (?DivMod32s)
                                                   ?Subroutine0 (display)
                                                   ?Subroutine5 (bmp_ps)

    -------------------------------------------------------------------------
  LIBRARY MODULE, NAME : ?DivMod32s

  SEGMENTS IN THE MODULE
  ======================
<CODE> 1 (was CODE)
  Relative segment, address: C9DA - CA19 (0x40 bytes), align: 1
  Segment part 0.
           ENTRY                   ADDRESS         REF BY
           =====                   =======         ======
           ?DivMod32s              C9DA            ?Subroutine1 (altitude)
                                                   ?Subroutine1 (bmp_ps)
                                                   Segment part 13 (bmp_ps)
                                                   bmp_ps_get_temp (bmp_ps)
                                                   button_repeat_on (ports)
                                                   set_value (user)
                                                   temperature_measurement (temperature)

    -------------------------------------------------------------------------
  LIBRARY MODULE, NAME : ?ShiftLeft32_8n

  SEGMENTS IN THE MODULE
  ======================
<CODE> 1 (was CODE)
  Relative segment, address: DB82 - DB85 (0x4 bytes), align: 1
  Segment part 3.
           ENTRY                   ADDRESS         REF BY
           =====                   =======         ======
           ?ShiftLeft32_11         DB82            bmp_ps_get_temp (bmp_ps)
    -------------------------------------------------------------------------
<CODE> 1 (was CODE)
  Relative segment, address: DB86 - DB89 (0x4 bytes), align: 1
  Segment part 4.             Intra module refs:   ?ShiftLeft32_11
           ENTRY                   ADDRESS         REF BY
           =====                   =======         ======
           ?ShiftLeft32_10         DB86 
    -------------------------------------------------------------------------
<CODE> 1 (was CODE)
  Relative segment, address: DB8A - DB8D (0x4 bytes), align: 1
  Segment part 5.             Intra module refs:   ?ShiftLeft32_10
           ENTRY                   ADDRESS         REF BY
           =====                   =======         ======
           ?ShiftLeft32_9          DB8A 
    -------------------------------------------------------------------------
<CODE> 1 (was CODE)
  Relative segment, address: DB8E - DB99 (0xc bytes), align: 1
  Segment part 6.             Intra module refs:   ?ShiftLeft32_9
           ENTRY                   ADDRESS         REF BY
           =====                   =======         ======
           ?ShiftLeft32_8          DB8E 

    -------------------------------------------------------------------------
  LIBRARY MODULE, NAME : ?OneBitMask32

  SEGMENTS IN THE MODULE
  ======================
<CODE> 1 (was CODE)
  Relative segment, address: D6BA - D6DB (0x22 bytes), align: 1
  Segment part 0.
           ENTRY                   ADDRESS         REF BY
           =====                   =======         ======
           ?OneBitMask32           D6BA            convert_acceleration_value_to_mgrav (acceleration)

    -------------------------------------------------------------------------
  LIBRARY MODULE, NAME : ?ShiftRight32s_8n

  SEGMENTS IN THE MODULE
  ======================
<CODE> 1 (was CODE)
  Relative segment, address: DA5C - DA5F (0x4 bytes), align: 1
  Segment part 2.
           ENTRY                   ADDRESS         REF BY
           =====                   =======         ======
           ?ShiftRight32s_12       DA5C            bmp_ps_get_pa (bmp_ps)
    -------------------------------------------------------------------------
<CODE> 1 (was CODE)
  Relative segment, address: DA60 - DA63 (0x4 bytes), align: 1
  Segment part 3.             Intra module refs:   ?ShiftRight32s_12
           ENTRY                   ADDRESS         REF BY
           =====                   =======         ======
           ?ShiftRight32s_11       DA60 
    -------------------------------------------------------------------------
<CODE> 1 (was CODE)
  Relative segment, address: DA64 - DA67 (0x4 bytes), align: 1
  Segment part 4.             Intra module refs:   ?ShiftRight32s_11
           ENTRY                   ADDRESS         REF BY
           =====                   =======         ======
           ?ShiftRight32s_10       DA64 
    -------------------------------------------------------------------------
<CODE> 1 (was CODE)
  Relative segment, address: DA68 - DA6B (0x4 bytes), align: 1
  Segment part 5.             Intra module refs:   ?ShiftRight32s_10
           ENTRY                   ADDRESS         REF BY
           =====                   =======         ======
           ?ShiftRight32s_9        DA68 
    -------------------------------------------------------------------------
<CODE> 1 (was CODE)
  Relative segment, address: DA6C - DA77 (0xc bytes), align: 1
  Segment part 6.             Intra module refs:   ?ShiftRight32s_9
           ENTRY                   ADDRESS         REF BY
           =====                   =======         ======
           ?ShiftRight32s_8        DA6C 

    -------------------------------------------------------------------------
  LIBRARY MODULE, NAME : ?ShiftRight32u

  SEGMENTS IN THE MODULE
  ======================
<CODE> 1 (was CODE)
  Relative segment, address: C0EA - C129 (0x40 bytes), align: 1
  Segment part 0.
           ENTRY                   ADDRESS         REF BY
           =====                   =======         ======
           ?ShiftRight32u          C0EA            convert_acceleration_value_to_mgrav (acceleration)
    -------------------------------------------------------------------------
<CODE> 1 (was CODE)
  Relative segment, address: C12A - C12D (0x4 bytes), align: 1
  Segment part 1.             Intra module refs:   ?ShiftRight32u
           ENTRY                   ADDRESS         REF BY
           =====                   =======         ======
           ?ShiftRight32u_7        C12A 
    -------------------------------------------------------------------------
<CODE> 1 (was CODE)
  Relative segment, address: C12E - C131 (0x4 bytes), align: 1
  Segment part 2.             Intra module refs:   ?ShiftRight32u_7
           ENTRY                   ADDRESS         REF BY
           =====                   =======         ======
           ?ShiftRight32u_6        C12E 
    -------------------------------------------------------------------------
<CODE> 1 (was CODE)
  Relative segment, address: C132 - C135 (0x4 bytes), align: 1
  Segment part 3.             Intra module refs:   ?ShiftRight32u_6
           ENTRY                   ADDRESS         REF BY
           =====                   =======         ======
           ?ShiftRight32u_5        C132 
    -------------------------------------------------------------------------
<CODE> 1 (was CODE)
  Relative segment, address: C136 - C139 (0x4 bytes), align: 1
  Segment part 4.             Intra module refs:   ?ShiftRight32u_5
           ENTRY                   ADDRESS         REF BY
           =====                   =======         ======
           ?ShiftRight32u_4        C136 
    -------------------------------------------------------------------------
<CODE> 1 (was CODE)
  Relative segment, address: C13A - C13D (0x4 bytes), align: 1
  Segment part 5.             Intra module refs:   ?ShiftRight32u_4
           ENTRY                   ADDRESS         REF BY
           =====                   =======         ======
           ?ShiftRight32u_3        C13A 
    -------------------------------------------------------------------------
<CODE> 1 (was CODE)
  Relative segment, address: C13E - C147 (0xa bytes), align: 1
  Segment part 6.             Intra module refs:   ?ShiftRight32u_3
           ENTRY                   ADDRESS         REF BY
           =====                   =======         ======
           ?ShiftRight32u_2        C13E 

    -------------------------------------------------------------------------
  LIBRARY MODULE, NAME : ?memcmp

  SEGMENTS IN THE MODULE
  ======================
<CODE> 1 (was CODE)
  Relative segment, address: D5DE - D603 (0x26 bytes), align: 1
  Segment part 2.
           ENTRY                   ADDRESS         REF BY
           =====                   =======         ======
           memcmp                  D5DE            Segment part 18 (nwk)
                                                   dispatchFrame (nwk_frame)
                                                   nwk_QfindOldest (nwk_QMgmt)
                                                   nwk_processMgmt (nwk_mgmt)
               CSTACK = 00000000 ( 00000006 )

    -------------------------------------------------------------------------
  LIBRARY MODULE, NAME : ?memcpy

  SEGMENTS IN THE MODULE
  ======================
<CODE> 1 (was CODE)
  Relative segment, address: DEAC - DEBD (0x12 bytes), align: 1
  Segment part 2.
           ENTRY                   ADDRESS         REF BY
           =====                   =======         ======
           memcpy                  DEAC            ?Subroutine0 (nwk_globals)
                                                   ?Subroutine7 (nwk_link)
                                                   SMPL_Ioctl (nwk_api)
                                                   SMPL_SendOpt (nwk_api)
                                                   __data16_memcpy (?memzero)
                                                   display_update (main)
                                                   int_to_array (display)
                                                   nwk_buildFrame (nwk_frame)
                                                   nwk_deviceAddress (nwk_ioctl)
                                                   nwk_join (nwk_join)
                                                   nwk_link (nwk_link)
                                                   nwk_nwkInit (nwk)
                                                   nwk_radioControl (nwk_ioctl)
                                                   nwk_rawSend (nwk_ioctl)
                                                   nwk_retrieveFrame (nwk_frame)
                                                   nwk_sendAckReply (nwk_frame)
                                                   nwk_setAPAddress (nwk_globals)
                                                   reset_stopwatch (stopwatch)
                                                   smpl_send_ping_reply (nwk_ping)
               CSTACK = 00000000 ( 00000004 )

    -------------------------------------------------------------------------
  LIBRARY MODULE, NAME : ?memmove

  SEGMENTS IN THE MODULE
  ======================
<CODE> 1 (was CODE)
  Relative segment, address: CF8A - CFBD (0x34 bytes), align: 1
  Segment part 2.
           ENTRY                   ADDRESS         REF BY
           =====                   =======         ======
           memmove                 CF8A            nwk_getNumObjectFromMsg (nwk)
                                                   nwk_putNumObjectIntoMsg (nwk)
               CSTACK = 00000000 ( 00000006 )

    -------------------------------------------------------------------------
  LIBRARY MODULE, NAME : ?CopyMemoryBytes

  SEGMENTS IN THE MODULE
  ======================
<CODE> 1 (was CODE)
  Relative segment, address: DFEA - DFF9 (0x10 bytes), align: 1
  Segment part 0.
           ENTRY                   ADDRESS         REF BY
           =====                   =======         ======
           ?CopyMemoryBytes        DFEA            MRFI_Receive (mrfi)

    -------------------------------------------------------------------------
  LIBRARY MODULE, NAME : ?memset

  SEGMENTS IN THE MODULE
  ======================
<CODE> 1 (was CODE)
  Relative segment, address: DE1C - DE2D (0x12 bytes), align: 1
  Segment part 2.
           ENTRY                   ADDRESS         REF BY
           =====                   =======         ======
           memset                  DE1C            MRFI_Init (mrfi)
                                                   Segment part 72 (mrfi)
                                                   nwk_QInit (nwk_QMgmt)
                                                   nwk_allocateLocalRxPort (nwk)
                                                   nwk_globalsInit (nwk_globals)
                                                   nwk_linkInit (nwk_link)
                                                   nwk_nwkInit (nwk)
               CSTACK = 00000000 ( 00000004 )

    -------------------------------------------------------------------------
  LIBRARY MODULE, NAME : ?memzero

  SEGMENTS IN THE MODULE
  ======================
<CODE> 1 (was CODE)
  Relative segment, address: DE0A - DE1B (0x12 bytes), align: 1
  Segment part 4.
           ENTRY                   ADDRESS         REF BY
           =====                   =======         ======
           __data16_memzero        DE0A            ?cstart_init_zero (?cstart)
               CSTACK = 00000000 ( 00000004 )
    -------------------------------------------------------------------------
<CODE> 1 (was CODE)
  Relative segment, address: E472 - E475 (0x4 bytes), align: 1
  Segment part 3.
           ENTRY                   ADDRESS         REF BY
           =====                   =======         ======
           __data16_memcpy         E472            ?cstart_init_copy (?cstart)
               calls direct
               CSTACK = 00000000 ( 00000004 )

    -------------------------------------------------------------------------
  LIBRARY MODULE, NAME : ?IndCallR9

  SEGMENTS IN THE MODULE
  ======================
<CODE> 1 (was CODE)
  Relative segment, address: E47A - E47D (0x4 bytes), align: 1
  Segment part 0.
           ENTRY                   ADDRESS         REF BY
           =====                   =======         ======
           ?IndCallR9              E47A            set_value (user)

    -------------------------------------------------------------------------
  LIBRARY MODULE, NAME : ?IndCallR15

  SEGMENTS IN THE MODULE
  ======================
<CODE> 1 (was CODE)
  Relative segment, address: E4B2 - E4B5 (0x4 bytes), align: 1
  Segment part 0.
           ENTRY                   ADDRESS         REF BY
           =====                   =======         ======
           ?IndCallR15             E4B2            ?Subroutine0 (main)
                                                   dispatchFrame (nwk_frame)
                                                   wakeup_event (main)




                ****************************************
                *                                      *
                *            MODULE SUMMARY            *
                *                                      *
                ****************************************

Module                CODE      DATA      CONST
------                ----      ----      -----
                     (Rel)  (Rel)  (Abs)  (Rel)
?Cast32f32i            146
?CopyMemoryBytes        16
?DivMod32s              64
?DivMod32u              56
?DivMod816s             52
?DivMod816u             28
?FLT_Extract            76
?FLT_LT                 82
?IndCallR15              4
?IndCallR9               4
?Mul32                  46
?Mul816                 50
?OneBitMask32           34
?ShiftLeft32_8n         24
?ShiftRight32s_8n       28
?ShiftRight32u          94
?__dbg_break             2
?__exit                 24
?_exit                   4
?cstart                 48
?exit                    4
?memcmp                 38
?memcpy                 18
?memmove                52
?memset                 18
?memzero                22
?reset_vector            2
_Add32f                354
_Cast32fto32u           12
_CmpLt32f               10
_Div32f                304
_Mul32f                272
acceleration           498     10            32
adc12                  136      3     13
  + common             114
alarm                  526      4
altitude               884     14             4
  + shared                             6
as                     310      1      4
  + shared                            14
battery                212      6
bluerobin_stubs         18     24
bmp_as                 198
  + shared                             4
bmp_ps                 742     26
bsp                    302             4
  + shared                            14
buzzer                 194      8
clock                1 002     14             8
cma_as                 144
cma_ps                 316
date                   816      6
display                956     94     12    720
main                 1 278     17     10     31
  + shared                            20
main_ED_BM             390      1
menu                    82      4           216
mrfi                 2 026     59      6     77
  + shared                            18
nwk                    940     29            29
nwk_QMgmt              406    140
nwk_api                612      1
nwk_frame              714      9            24
nwk_freq                 6
nwk_globals            112      9             9
nwk_ioctl              360
nwk_join               344      9
nwk_link               906      8
nwk_mgmt                68      1
nwk_ping               122      1
nwk_security             6
pmm                    144
ports                  670     10             1
  + common              98
ps                   1 530     69      2     68
radio                  158             2
  + common             108
rf1a                   232
rfbsl                  128      1            18
rfsimpliciti         1 186     69            28
stopwatch              748     14      2      9
  + shared                             4
temperature            668      6
timer                  932      7     16     12
  + common             112
user                   506
N/A (command line)             80
N/A (alignment)
----------          ------    ---    ---  -----
Total:              24 516    754    151  1 286
  + common             114


                ****************************************
                *                                      *
                *      SEGMENTS IN ADDRESS ORDER       *
                *                                      *
                ****************************************


SEGMENT              SPACE    START ADDRESS   END ADDRESS     SIZE  TYPE  ALIGN
=======              =====    =============   ===========     ====  ====  =====
DATA16_AN                              0102 - 0103               2   rel    0
                                       0120 - 0121               2 
                                       0124 - 0127               4 
                                       012C - 012D               2 
                                       015C - 015D               2 
                                       0160 - 0169               A 
                                       016C - 016F               4 
                                       01B0 - 01B1               2 
                                       01C0 - 01C3               4 
                                       01C8 - 01C9               2 
                                       01D0 - 01D1               2 
                                       0200 - 0207               8 
                                       020A - 020B               2 
                                       0218 - 021D               6 
                                       0222 - 0225               4 
                                       0244 - 0245               2 
                                       024A - 024B               2 
                                       0320 - 0325               6 
                                       0340 - 0343               4 
                                       0346 - 034B               6 
                                       0350 - 0353               4 
                                       0356 - 035B               6 
                                       036E - 036F               2 
                                       0380 - 0383               4 
                                       0390 - 0393               4 
                                       05C0 - 05C1               2 
                                       05C6 - 05C7               2 
                                       05CC - 05CC               1 
                                       05CE - 05CE               1 
                                       05DC - 05DD               2 
                                       0700 - 0703               4 
                                       070C - 0710               5 
                                       0720 - 0721               2 
                                       0A00 - 0A01               2 
                                       0A04 - 0A07               4 
                                       0A0A - 0A0D               4 
                                       0F02 - 0F03               2 
                                       0F06 - 0F07               2 
                                       0F0C - 0F13               8 
                                       0F20 - 0F23               4 
                                       0F30 - 0F39               A 
DATA16_I                               1C00 - 1C76              77   rel    1
DATA16_Z                               1C78 - 1EA2             22B   rel    1
CSTACK                                 2BAE - 2BFD              50   rel    1
DATA16_C                               8000 - 848E             48F   rel    1
DATA16_ID                              8490 - 8506              77   rel    1
CSTART                                 8508 - 8537              30   rel    1
ISR_CODE                               8538 - 8A7F             548   rel    1
<CODE> 1                               8A80 - E4C9            5A4A   rel    1
INTVEC                                 FF80 - FFF1              72   com    1
RESET                                  FFFE - FFFF               2   rel    1

                ****************************************
                *                                      *
                *        END OF CROSS REFERENCE        *
                *                                      *
                ****************************************

 24 630 bytes of CODE  memory
    754 bytes of DATA  memory (+ 151 absolute )
  1 286 bytes of CONST memory

Errors: none
Warnings: none

